
b5-ESP32-AT-TCP-CLI.elf:     file format elf32-littlearm

Sections:
Idx Name          Size      VMA       LMA       File off  Algn
  0 .isr_vector   00000198  08000000  08000000  00010000  2**0
                  CONTENTS, ALLOC, LOAD, READONLY, DATA
  1 .text         00005c10  080001a0  080001a0  000101a0  2**4
                  CONTENTS, ALLOC, LOAD, READONLY, CODE
  2 .rodata       00000374  08005db0  08005db0  00015db0  2**3
                  CONTENTS, ALLOC, LOAD, READONLY, DATA
  3 .ARM.extab    00000000  08006124  08006124  0002007c  2**0
                  CONTENTS
  4 .ARM          00000008  08006124  08006124  00016124  2**2
                  CONTENTS, ALLOC, LOAD, READONLY, DATA
  5 .preinit_array 00000000  0800612c  0800612c  0002007c  2**0
                  CONTENTS, ALLOC, LOAD, DATA
  6 .init_array   00000004  0800612c  0800612c  0001612c  2**2
                  CONTENTS, ALLOC, LOAD, DATA
  7 .fini_array   00000004  08006130  08006130  00016130  2**2
                  CONTENTS, ALLOC, LOAD, DATA
  8 .data         0000007c  20000000  08006134  00020000  2**2
                  CONTENTS, ALLOC, LOAD, DATA
  9 .bss          00002bec  20000080  080061b0  00020080  2**3
                  ALLOC
 10 ._user_heap_stack 00000604  20002c6c  080061b0  00022c6c  2**0
                  ALLOC
 11 .ARM.attributes 00000030  00000000  00000000  0002007c  2**0
                  CONTENTS, READONLY
 12 .comment      00000053  00000000  00000000  000200ac  2**0
                  CONTENTS, READONLY
 13 .debug_frame  00000cac  00000000  00000000  00020100  2**2
                  CONTENTS, READONLY, DEBUGGING, OCTETS

Disassembly of section .text:

080001a0 <__do_global_dtors_aux>:
 80001a0:	b510      	push	{r4, lr}
 80001a2:	4c05      	ldr	r4, [pc, #20]	; (80001b8 <__do_global_dtors_aux+0x18>)
 80001a4:	7823      	ldrb	r3, [r4, #0]
 80001a6:	b933      	cbnz	r3, 80001b6 <__do_global_dtors_aux+0x16>
 80001a8:	4b04      	ldr	r3, [pc, #16]	; (80001bc <__do_global_dtors_aux+0x1c>)
 80001aa:	b113      	cbz	r3, 80001b2 <__do_global_dtors_aux+0x12>
 80001ac:	4804      	ldr	r0, [pc, #16]	; (80001c0 <__do_global_dtors_aux+0x20>)
 80001ae:	f3af 8000 	nop.w
 80001b2:	2301      	movs	r3, #1
 80001b4:	7023      	strb	r3, [r4, #0]
 80001b6:	bd10      	pop	{r4, pc}
 80001b8:	20000080 	.word	0x20000080
 80001bc:	00000000 	.word	0x00000000
 80001c0:	08005d98 	.word	0x08005d98

080001c4 <frame_dummy>:
 80001c4:	b508      	push	{r3, lr}
 80001c6:	4b03      	ldr	r3, [pc, #12]	; (80001d4 <frame_dummy+0x10>)
 80001c8:	b11b      	cbz	r3, 80001d2 <frame_dummy+0xe>
 80001ca:	4903      	ldr	r1, [pc, #12]	; (80001d8 <frame_dummy+0x14>)
 80001cc:	4803      	ldr	r0, [pc, #12]	; (80001dc <frame_dummy+0x18>)
 80001ce:	f3af 8000 	nop.w
 80001d2:	bd08      	pop	{r3, pc}
 80001d4:	00000000 	.word	0x00000000
 80001d8:	20000084 	.word	0x20000084
 80001dc:	08005d98 	.word	0x08005d98

080001e0 <strlen>:
 80001e0:	4603      	mov	r3, r0
 80001e2:	f813 2b01 	ldrb.w	r2, [r3], #1
 80001e6:	2a00      	cmp	r2, #0
 80001e8:	d1fb      	bne.n	80001e2 <strlen+0x2>
 80001ea:	1a18      	subs	r0, r3, r0
 80001ec:	3801      	subs	r0, #1
 80001ee:	4770      	bx	lr

080001f0 <memchr>:
 80001f0:	f001 01ff 	and.w	r1, r1, #255	; 0xff
 80001f4:	2a10      	cmp	r2, #16
 80001f6:	db2b      	blt.n	8000250 <memchr+0x60>
 80001f8:	f010 0f07 	tst.w	r0, #7
 80001fc:	d008      	beq.n	8000210 <memchr+0x20>
 80001fe:	f810 3b01 	ldrb.w	r3, [r0], #1
 8000202:	3a01      	subs	r2, #1
 8000204:	428b      	cmp	r3, r1
 8000206:	d02d      	beq.n	8000264 <memchr+0x74>
 8000208:	f010 0f07 	tst.w	r0, #7
 800020c:	b342      	cbz	r2, 8000260 <memchr+0x70>
 800020e:	d1f6      	bne.n	80001fe <memchr+0xe>
 8000210:	b4f0      	push	{r4, r5, r6, r7}
 8000212:	ea41 2101 	orr.w	r1, r1, r1, lsl #8
 8000216:	ea41 4101 	orr.w	r1, r1, r1, lsl #16
 800021a:	f022 0407 	bic.w	r4, r2, #7
 800021e:	f07f 0700 	mvns.w	r7, #0
 8000222:	2300      	movs	r3, #0
 8000224:	e8f0 5602 	ldrd	r5, r6, [r0], #8
 8000228:	3c08      	subs	r4, #8
 800022a:	ea85 0501 	eor.w	r5, r5, r1
 800022e:	ea86 0601 	eor.w	r6, r6, r1
 8000232:	fa85 f547 	uadd8	r5, r5, r7
 8000236:	faa3 f587 	sel	r5, r3, r7
 800023a:	fa86 f647 	uadd8	r6, r6, r7
 800023e:	faa5 f687 	sel	r6, r5, r7
 8000242:	b98e      	cbnz	r6, 8000268 <memchr+0x78>
 8000244:	d1ee      	bne.n	8000224 <memchr+0x34>
 8000246:	bcf0      	pop	{r4, r5, r6, r7}
 8000248:	f001 01ff 	and.w	r1, r1, #255	; 0xff
 800024c:	f002 0207 	and.w	r2, r2, #7
 8000250:	b132      	cbz	r2, 8000260 <memchr+0x70>
 8000252:	f810 3b01 	ldrb.w	r3, [r0], #1
 8000256:	3a01      	subs	r2, #1
 8000258:	ea83 0301 	eor.w	r3, r3, r1
 800025c:	b113      	cbz	r3, 8000264 <memchr+0x74>
 800025e:	d1f8      	bne.n	8000252 <memchr+0x62>
 8000260:	2000      	movs	r0, #0
 8000262:	4770      	bx	lr
 8000264:	3801      	subs	r0, #1
 8000266:	4770      	bx	lr
 8000268:	2d00      	cmp	r5, #0
 800026a:	bf06      	itte	eq
 800026c:	4635      	moveq	r5, r6
 800026e:	3803      	subeq	r0, #3
 8000270:	3807      	subne	r0, #7
 8000272:	f015 0f01 	tst.w	r5, #1
 8000276:	d107      	bne.n	8000288 <memchr+0x98>
 8000278:	3001      	adds	r0, #1
 800027a:	f415 7f80 	tst.w	r5, #256	; 0x100
 800027e:	bf02      	ittt	eq
 8000280:	3001      	addeq	r0, #1
 8000282:	f415 3fc0 	tsteq.w	r5, #98304	; 0x18000
 8000286:	3001      	addeq	r0, #1
 8000288:	bcf0      	pop	{r4, r5, r6, r7}
 800028a:	3801      	subs	r0, #1
 800028c:	4770      	bx	lr
 800028e:	bf00      	nop

08000290 <__aeabi_drsub>:
 8000290:	f081 4100 	eor.w	r1, r1, #2147483648	; 0x80000000
 8000294:	e002      	b.n	800029c <__adddf3>
 8000296:	bf00      	nop

08000298 <__aeabi_dsub>:
 8000298:	f083 4300 	eor.w	r3, r3, #2147483648	; 0x80000000

0800029c <__adddf3>:
 800029c:	b530      	push	{r4, r5, lr}
 800029e:	ea4f 0441 	mov.w	r4, r1, lsl #1
 80002a2:	ea4f 0543 	mov.w	r5, r3, lsl #1
 80002a6:	ea94 0f05 	teq	r4, r5
 80002aa:	bf08      	it	eq
 80002ac:	ea90 0f02 	teqeq	r0, r2
 80002b0:	bf1f      	itttt	ne
 80002b2:	ea54 0c00 	orrsne.w	ip, r4, r0
 80002b6:	ea55 0c02 	orrsne.w	ip, r5, r2
 80002ba:	ea7f 5c64 	mvnsne.w	ip, r4, asr #21
 80002be:	ea7f 5c65 	mvnsne.w	ip, r5, asr #21
 80002c2:	f000 80e2 	beq.w	800048a <__adddf3+0x1ee>
 80002c6:	ea4f 5454 	mov.w	r4, r4, lsr #21
 80002ca:	ebd4 5555 	rsbs	r5, r4, r5, lsr #21
 80002ce:	bfb8      	it	lt
 80002d0:	426d      	neglt	r5, r5
 80002d2:	dd0c      	ble.n	80002ee <__adddf3+0x52>
 80002d4:	442c      	add	r4, r5
 80002d6:	ea80 0202 	eor.w	r2, r0, r2
 80002da:	ea81 0303 	eor.w	r3, r1, r3
 80002de:	ea82 0000 	eor.w	r0, r2, r0
 80002e2:	ea83 0101 	eor.w	r1, r3, r1
 80002e6:	ea80 0202 	eor.w	r2, r0, r2
 80002ea:	ea81 0303 	eor.w	r3, r1, r3
 80002ee:	2d36      	cmp	r5, #54	; 0x36
 80002f0:	bf88      	it	hi
 80002f2:	bd30      	pophi	{r4, r5, pc}
 80002f4:	f011 4f00 	tst.w	r1, #2147483648	; 0x80000000
 80002f8:	ea4f 3101 	mov.w	r1, r1, lsl #12
 80002fc:	f44f 1c80 	mov.w	ip, #1048576	; 0x100000
 8000300:	ea4c 3111 	orr.w	r1, ip, r1, lsr #12
 8000304:	d002      	beq.n	800030c <__adddf3+0x70>
 8000306:	4240      	negs	r0, r0
 8000308:	eb61 0141 	sbc.w	r1, r1, r1, lsl #1
 800030c:	f013 4f00 	tst.w	r3, #2147483648	; 0x80000000
 8000310:	ea4f 3303 	mov.w	r3, r3, lsl #12
 8000314:	ea4c 3313 	orr.w	r3, ip, r3, lsr #12
 8000318:	d002      	beq.n	8000320 <__adddf3+0x84>
 800031a:	4252      	negs	r2, r2
 800031c:	eb63 0343 	sbc.w	r3, r3, r3, lsl #1
 8000320:	ea94 0f05 	teq	r4, r5
 8000324:	f000 80a7 	beq.w	8000476 <__adddf3+0x1da>
 8000328:	f1a4 0401 	sub.w	r4, r4, #1
 800032c:	f1d5 0e20 	rsbs	lr, r5, #32
 8000330:	db0d      	blt.n	800034e <__adddf3+0xb2>
 8000332:	fa02 fc0e 	lsl.w	ip, r2, lr
 8000336:	fa22 f205 	lsr.w	r2, r2, r5
 800033a:	1880      	adds	r0, r0, r2
 800033c:	f141 0100 	adc.w	r1, r1, #0
 8000340:	fa03 f20e 	lsl.w	r2, r3, lr
 8000344:	1880      	adds	r0, r0, r2
 8000346:	fa43 f305 	asr.w	r3, r3, r5
 800034a:	4159      	adcs	r1, r3
 800034c:	e00e      	b.n	800036c <__adddf3+0xd0>
 800034e:	f1a5 0520 	sub.w	r5, r5, #32
 8000352:	f10e 0e20 	add.w	lr, lr, #32
 8000356:	2a01      	cmp	r2, #1
 8000358:	fa03 fc0e 	lsl.w	ip, r3, lr
 800035c:	bf28      	it	cs
 800035e:	f04c 0c02 	orrcs.w	ip, ip, #2
 8000362:	fa43 f305 	asr.w	r3, r3, r5
 8000366:	18c0      	adds	r0, r0, r3
 8000368:	eb51 71e3 	adcs.w	r1, r1, r3, asr #31
 800036c:	f001 4500 	and.w	r5, r1, #2147483648	; 0x80000000
 8000370:	d507      	bpl.n	8000382 <__adddf3+0xe6>
 8000372:	f04f 0e00 	mov.w	lr, #0
 8000376:	f1dc 0c00 	rsbs	ip, ip, #0
 800037a:	eb7e 0000 	sbcs.w	r0, lr, r0
 800037e:	eb6e 0101 	sbc.w	r1, lr, r1
 8000382:	f5b1 1f80 	cmp.w	r1, #1048576	; 0x100000
 8000386:	d31b      	bcc.n	80003c0 <__adddf3+0x124>
 8000388:	f5b1 1f00 	cmp.w	r1, #2097152	; 0x200000
 800038c:	d30c      	bcc.n	80003a8 <__adddf3+0x10c>
 800038e:	0849      	lsrs	r1, r1, #1
 8000390:	ea5f 0030 	movs.w	r0, r0, rrx
 8000394:	ea4f 0c3c 	mov.w	ip, ip, rrx
 8000398:	f104 0401 	add.w	r4, r4, #1
 800039c:	ea4f 5244 	mov.w	r2, r4, lsl #21
 80003a0:	f512 0f80 	cmn.w	r2, #4194304	; 0x400000
 80003a4:	f080 809a 	bcs.w	80004dc <__adddf3+0x240>
 80003a8:	f1bc 4f00 	cmp.w	ip, #2147483648	; 0x80000000
 80003ac:	bf08      	it	eq
 80003ae:	ea5f 0c50 	movseq.w	ip, r0, lsr #1
 80003b2:	f150 0000 	adcs.w	r0, r0, #0
 80003b6:	eb41 5104 	adc.w	r1, r1, r4, lsl #20
 80003ba:	ea41 0105 	orr.w	r1, r1, r5
 80003be:	bd30      	pop	{r4, r5, pc}
 80003c0:	ea5f 0c4c 	movs.w	ip, ip, lsl #1
 80003c4:	4140      	adcs	r0, r0
 80003c6:	eb41 0101 	adc.w	r1, r1, r1
 80003ca:	3c01      	subs	r4, #1
 80003cc:	bf28      	it	cs
 80003ce:	f5b1 1f80 	cmpcs.w	r1, #1048576	; 0x100000
 80003d2:	d2e9      	bcs.n	80003a8 <__adddf3+0x10c>
 80003d4:	f091 0f00 	teq	r1, #0
 80003d8:	bf04      	itt	eq
 80003da:	4601      	moveq	r1, r0
 80003dc:	2000      	moveq	r0, #0
 80003de:	fab1 f381 	clz	r3, r1
 80003e2:	bf08      	it	eq
 80003e4:	3320      	addeq	r3, #32
 80003e6:	f1a3 030b 	sub.w	r3, r3, #11
 80003ea:	f1b3 0220 	subs.w	r2, r3, #32
 80003ee:	da0c      	bge.n	800040a <__adddf3+0x16e>
 80003f0:	320c      	adds	r2, #12
 80003f2:	dd08      	ble.n	8000406 <__adddf3+0x16a>
 80003f4:	f102 0c14 	add.w	ip, r2, #20
 80003f8:	f1c2 020c 	rsb	r2, r2, #12
 80003fc:	fa01 f00c 	lsl.w	r0, r1, ip
 8000400:	fa21 f102 	lsr.w	r1, r1, r2
 8000404:	e00c      	b.n	8000420 <__adddf3+0x184>
 8000406:	f102 0214 	add.w	r2, r2, #20
 800040a:	bfd8      	it	le
 800040c:	f1c2 0c20 	rsble	ip, r2, #32
 8000410:	fa01 f102 	lsl.w	r1, r1, r2
 8000414:	fa20 fc0c 	lsr.w	ip, r0, ip
 8000418:	bfdc      	itt	le
 800041a:	ea41 010c 	orrle.w	r1, r1, ip
 800041e:	4090      	lslle	r0, r2
 8000420:	1ae4      	subs	r4, r4, r3
 8000422:	bfa2      	ittt	ge
 8000424:	eb01 5104 	addge.w	r1, r1, r4, lsl #20
 8000428:	4329      	orrge	r1, r5
 800042a:	bd30      	popge	{r4, r5, pc}
 800042c:	ea6f 0404 	mvn.w	r4, r4
 8000430:	3c1f      	subs	r4, #31
 8000432:	da1c      	bge.n	800046e <__adddf3+0x1d2>
 8000434:	340c      	adds	r4, #12
 8000436:	dc0e      	bgt.n	8000456 <__adddf3+0x1ba>
 8000438:	f104 0414 	add.w	r4, r4, #20
 800043c:	f1c4 0220 	rsb	r2, r4, #32
 8000440:	fa20 f004 	lsr.w	r0, r0, r4
 8000444:	fa01 f302 	lsl.w	r3, r1, r2
 8000448:	ea40 0003 	orr.w	r0, r0, r3
 800044c:	fa21 f304 	lsr.w	r3, r1, r4
 8000450:	ea45 0103 	orr.w	r1, r5, r3
 8000454:	bd30      	pop	{r4, r5, pc}
 8000456:	f1c4 040c 	rsb	r4, r4, #12
 800045a:	f1c4 0220 	rsb	r2, r4, #32
 800045e:	fa20 f002 	lsr.w	r0, r0, r2
 8000462:	fa01 f304 	lsl.w	r3, r1, r4
 8000466:	ea40 0003 	orr.w	r0, r0, r3
 800046a:	4629      	mov	r1, r5
 800046c:	bd30      	pop	{r4, r5, pc}
 800046e:	fa21 f004 	lsr.w	r0, r1, r4
 8000472:	4629      	mov	r1, r5
 8000474:	bd30      	pop	{r4, r5, pc}
 8000476:	f094 0f00 	teq	r4, #0
 800047a:	f483 1380 	eor.w	r3, r3, #1048576	; 0x100000
 800047e:	bf06      	itte	eq
 8000480:	f481 1180 	eoreq.w	r1, r1, #1048576	; 0x100000
 8000484:	3401      	addeq	r4, #1
 8000486:	3d01      	subne	r5, #1
 8000488:	e74e      	b.n	8000328 <__adddf3+0x8c>
 800048a:	ea7f 5c64 	mvns.w	ip, r4, asr #21
 800048e:	bf18      	it	ne
 8000490:	ea7f 5c65 	mvnsne.w	ip, r5, asr #21
 8000494:	d029      	beq.n	80004ea <__adddf3+0x24e>
 8000496:	ea94 0f05 	teq	r4, r5
 800049a:	bf08      	it	eq
 800049c:	ea90 0f02 	teqeq	r0, r2
 80004a0:	d005      	beq.n	80004ae <__adddf3+0x212>
 80004a2:	ea54 0c00 	orrs.w	ip, r4, r0
 80004a6:	bf04      	itt	eq
 80004a8:	4619      	moveq	r1, r3
 80004aa:	4610      	moveq	r0, r2
 80004ac:	bd30      	pop	{r4, r5, pc}
 80004ae:	ea91 0f03 	teq	r1, r3
 80004b2:	bf1e      	ittt	ne
 80004b4:	2100      	movne	r1, #0
 80004b6:	2000      	movne	r0, #0
 80004b8:	bd30      	popne	{r4, r5, pc}
 80004ba:	ea5f 5c54 	movs.w	ip, r4, lsr #21
 80004be:	d105      	bne.n	80004cc <__adddf3+0x230>
 80004c0:	0040      	lsls	r0, r0, #1
 80004c2:	4149      	adcs	r1, r1
 80004c4:	bf28      	it	cs
 80004c6:	f041 4100 	orrcs.w	r1, r1, #2147483648	; 0x80000000
 80004ca:	bd30      	pop	{r4, r5, pc}
 80004cc:	f514 0480 	adds.w	r4, r4, #4194304	; 0x400000
 80004d0:	bf3c      	itt	cc
 80004d2:	f501 1180 	addcc.w	r1, r1, #1048576	; 0x100000
 80004d6:	bd30      	popcc	{r4, r5, pc}
 80004d8:	f001 4500 	and.w	r5, r1, #2147483648	; 0x80000000
 80004dc:	f045 41fe 	orr.w	r1, r5, #2130706432	; 0x7f000000
 80004e0:	f441 0170 	orr.w	r1, r1, #15728640	; 0xf00000
 80004e4:	f04f 0000 	mov.w	r0, #0
 80004e8:	bd30      	pop	{r4, r5, pc}
 80004ea:	ea7f 5c64 	mvns.w	ip, r4, asr #21
 80004ee:	bf1a      	itte	ne
 80004f0:	4619      	movne	r1, r3
 80004f2:	4610      	movne	r0, r2
 80004f4:	ea7f 5c65 	mvnseq.w	ip, r5, asr #21
 80004f8:	bf1c      	itt	ne
 80004fa:	460b      	movne	r3, r1
 80004fc:	4602      	movne	r2, r0
 80004fe:	ea50 3401 	orrs.w	r4, r0, r1, lsl #12
 8000502:	bf06      	itte	eq
 8000504:	ea52 3503 	orrseq.w	r5, r2, r3, lsl #12
 8000508:	ea91 0f03 	teqeq	r1, r3
 800050c:	f441 2100 	orrne.w	r1, r1, #524288	; 0x80000
 8000510:	bd30      	pop	{r4, r5, pc}
 8000512:	bf00      	nop

08000514 <__aeabi_ui2d>:
 8000514:	f090 0f00 	teq	r0, #0
 8000518:	bf04      	itt	eq
 800051a:	2100      	moveq	r1, #0
 800051c:	4770      	bxeq	lr
 800051e:	b530      	push	{r4, r5, lr}
 8000520:	f44f 6480 	mov.w	r4, #1024	; 0x400
 8000524:	f104 0432 	add.w	r4, r4, #50	; 0x32
 8000528:	f04f 0500 	mov.w	r5, #0
 800052c:	f04f 0100 	mov.w	r1, #0
 8000530:	e750      	b.n	80003d4 <__adddf3+0x138>
 8000532:	bf00      	nop

08000534 <__aeabi_i2d>:
 8000534:	f090 0f00 	teq	r0, #0
 8000538:	bf04      	itt	eq
 800053a:	2100      	moveq	r1, #0
 800053c:	4770      	bxeq	lr
 800053e:	b530      	push	{r4, r5, lr}
 8000540:	f44f 6480 	mov.w	r4, #1024	; 0x400
 8000544:	f104 0432 	add.w	r4, r4, #50	; 0x32
 8000548:	f010 4500 	ands.w	r5, r0, #2147483648	; 0x80000000
 800054c:	bf48      	it	mi
 800054e:	4240      	negmi	r0, r0
 8000550:	f04f 0100 	mov.w	r1, #0
 8000554:	e73e      	b.n	80003d4 <__adddf3+0x138>
 8000556:	bf00      	nop

08000558 <__aeabi_f2d>:
 8000558:	0042      	lsls	r2, r0, #1
 800055a:	ea4f 01e2 	mov.w	r1, r2, asr #3
 800055e:	ea4f 0131 	mov.w	r1, r1, rrx
 8000562:	ea4f 7002 	mov.w	r0, r2, lsl #28
 8000566:	bf1f      	itttt	ne
 8000568:	f012 437f 	andsne.w	r3, r2, #4278190080	; 0xff000000
 800056c:	f093 4f7f 	teqne	r3, #4278190080	; 0xff000000
 8000570:	f081 5160 	eorne.w	r1, r1, #939524096	; 0x38000000
 8000574:	4770      	bxne	lr
 8000576:	f032 427f 	bics.w	r2, r2, #4278190080	; 0xff000000
 800057a:	bf08      	it	eq
 800057c:	4770      	bxeq	lr
 800057e:	f093 4f7f 	teq	r3, #4278190080	; 0xff000000
 8000582:	bf04      	itt	eq
 8000584:	f441 2100 	orreq.w	r1, r1, #524288	; 0x80000
 8000588:	4770      	bxeq	lr
 800058a:	b530      	push	{r4, r5, lr}
 800058c:	f44f 7460 	mov.w	r4, #896	; 0x380
 8000590:	f001 4500 	and.w	r5, r1, #2147483648	; 0x80000000
 8000594:	f021 4100 	bic.w	r1, r1, #2147483648	; 0x80000000
 8000598:	e71c      	b.n	80003d4 <__adddf3+0x138>
 800059a:	bf00      	nop

0800059c <__aeabi_ul2d>:
 800059c:	ea50 0201 	orrs.w	r2, r0, r1
 80005a0:	bf08      	it	eq
 80005a2:	4770      	bxeq	lr
 80005a4:	b530      	push	{r4, r5, lr}
 80005a6:	f04f 0500 	mov.w	r5, #0
 80005aa:	e00a      	b.n	80005c2 <__aeabi_l2d+0x16>

080005ac <__aeabi_l2d>:
 80005ac:	ea50 0201 	orrs.w	r2, r0, r1
 80005b0:	bf08      	it	eq
 80005b2:	4770      	bxeq	lr
 80005b4:	b530      	push	{r4, r5, lr}
 80005b6:	f011 4500 	ands.w	r5, r1, #2147483648	; 0x80000000
 80005ba:	d502      	bpl.n	80005c2 <__aeabi_l2d+0x16>
 80005bc:	4240      	negs	r0, r0
 80005be:	eb61 0141 	sbc.w	r1, r1, r1, lsl #1
 80005c2:	f44f 6480 	mov.w	r4, #1024	; 0x400
 80005c6:	f104 0432 	add.w	r4, r4, #50	; 0x32
 80005ca:	ea5f 5c91 	movs.w	ip, r1, lsr #22
 80005ce:	f43f aed8 	beq.w	8000382 <__adddf3+0xe6>
 80005d2:	f04f 0203 	mov.w	r2, #3
 80005d6:	ea5f 0cdc 	movs.w	ip, ip, lsr #3
 80005da:	bf18      	it	ne
 80005dc:	3203      	addne	r2, #3
 80005de:	ea5f 0cdc 	movs.w	ip, ip, lsr #3
 80005e2:	bf18      	it	ne
 80005e4:	3203      	addne	r2, #3
 80005e6:	eb02 02dc 	add.w	r2, r2, ip, lsr #3
 80005ea:	f1c2 0320 	rsb	r3, r2, #32
 80005ee:	fa00 fc03 	lsl.w	ip, r0, r3
 80005f2:	fa20 f002 	lsr.w	r0, r0, r2
 80005f6:	fa01 fe03 	lsl.w	lr, r1, r3
 80005fa:	ea40 000e 	orr.w	r0, r0, lr
 80005fe:	fa21 f102 	lsr.w	r1, r1, r2
 8000602:	4414      	add	r4, r2
 8000604:	e6bd      	b.n	8000382 <__adddf3+0xe6>
 8000606:	bf00      	nop

08000608 <__aeabi_dmul>:
 8000608:	b570      	push	{r4, r5, r6, lr}
 800060a:	f04f 0cff 	mov.w	ip, #255	; 0xff
 800060e:	f44c 6ce0 	orr.w	ip, ip, #1792	; 0x700
 8000612:	ea1c 5411 	ands.w	r4, ip, r1, lsr #20
 8000616:	bf1d      	ittte	ne
 8000618:	ea1c 5513 	andsne.w	r5, ip, r3, lsr #20
 800061c:	ea94 0f0c 	teqne	r4, ip
 8000620:	ea95 0f0c 	teqne	r5, ip
 8000624:	f000 f8de 	bleq	80007e4 <__aeabi_dmul+0x1dc>
 8000628:	442c      	add	r4, r5
 800062a:	ea81 0603 	eor.w	r6, r1, r3
 800062e:	ea21 514c 	bic.w	r1, r1, ip, lsl #21
 8000632:	ea23 534c 	bic.w	r3, r3, ip, lsl #21
 8000636:	ea50 3501 	orrs.w	r5, r0, r1, lsl #12
 800063a:	bf18      	it	ne
 800063c:	ea52 3503 	orrsne.w	r5, r2, r3, lsl #12
 8000640:	f441 1180 	orr.w	r1, r1, #1048576	; 0x100000
 8000644:	f443 1380 	orr.w	r3, r3, #1048576	; 0x100000
 8000648:	d038      	beq.n	80006bc <__aeabi_dmul+0xb4>
 800064a:	fba0 ce02 	umull	ip, lr, r0, r2
 800064e:	f04f 0500 	mov.w	r5, #0
 8000652:	fbe1 e502 	umlal	lr, r5, r1, r2
 8000656:	f006 4200 	and.w	r2, r6, #2147483648	; 0x80000000
 800065a:	fbe0 e503 	umlal	lr, r5, r0, r3
 800065e:	f04f 0600 	mov.w	r6, #0
 8000662:	fbe1 5603 	umlal	r5, r6, r1, r3
 8000666:	f09c 0f00 	teq	ip, #0
 800066a:	bf18      	it	ne
 800066c:	f04e 0e01 	orrne.w	lr, lr, #1
 8000670:	f1a4 04ff 	sub.w	r4, r4, #255	; 0xff
 8000674:	f5b6 7f00 	cmp.w	r6, #512	; 0x200
 8000678:	f564 7440 	sbc.w	r4, r4, #768	; 0x300
 800067c:	d204      	bcs.n	8000688 <__aeabi_dmul+0x80>
 800067e:	ea5f 0e4e 	movs.w	lr, lr, lsl #1
 8000682:	416d      	adcs	r5, r5
 8000684:	eb46 0606 	adc.w	r6, r6, r6
 8000688:	ea42 21c6 	orr.w	r1, r2, r6, lsl #11
 800068c:	ea41 5155 	orr.w	r1, r1, r5, lsr #21
 8000690:	ea4f 20c5 	mov.w	r0, r5, lsl #11
 8000694:	ea40 505e 	orr.w	r0, r0, lr, lsr #21
 8000698:	ea4f 2ece 	mov.w	lr, lr, lsl #11
 800069c:	f1b4 0cfd 	subs.w	ip, r4, #253	; 0xfd
 80006a0:	bf88      	it	hi
 80006a2:	f5bc 6fe0 	cmphi.w	ip, #1792	; 0x700
 80006a6:	d81e      	bhi.n	80006e6 <__aeabi_dmul+0xde>
 80006a8:	f1be 4f00 	cmp.w	lr, #2147483648	; 0x80000000
 80006ac:	bf08      	it	eq
 80006ae:	ea5f 0e50 	movseq.w	lr, r0, lsr #1
 80006b2:	f150 0000 	adcs.w	r0, r0, #0
 80006b6:	eb41 5104 	adc.w	r1, r1, r4, lsl #20
 80006ba:	bd70      	pop	{r4, r5, r6, pc}
 80006bc:	f006 4600 	and.w	r6, r6, #2147483648	; 0x80000000
 80006c0:	ea46 0101 	orr.w	r1, r6, r1
 80006c4:	ea40 0002 	orr.w	r0, r0, r2
 80006c8:	ea81 0103 	eor.w	r1, r1, r3
 80006cc:	ebb4 045c 	subs.w	r4, r4, ip, lsr #1
 80006d0:	bfc2      	ittt	gt
 80006d2:	ebd4 050c 	rsbsgt	r5, r4, ip
 80006d6:	ea41 5104 	orrgt.w	r1, r1, r4, lsl #20
 80006da:	bd70      	popgt	{r4, r5, r6, pc}
 80006dc:	f441 1180 	orr.w	r1, r1, #1048576	; 0x100000
 80006e0:	f04f 0e00 	mov.w	lr, #0
 80006e4:	3c01      	subs	r4, #1
 80006e6:	f300 80ab 	bgt.w	8000840 <__aeabi_dmul+0x238>
 80006ea:	f114 0f36 	cmn.w	r4, #54	; 0x36
 80006ee:	bfde      	ittt	le
 80006f0:	2000      	movle	r0, #0
 80006f2:	f001 4100 	andle.w	r1, r1, #2147483648	; 0x80000000
 80006f6:	bd70      	pople	{r4, r5, r6, pc}
 80006f8:	f1c4 0400 	rsb	r4, r4, #0
 80006fc:	3c20      	subs	r4, #32
 80006fe:	da35      	bge.n	800076c <__aeabi_dmul+0x164>
 8000700:	340c      	adds	r4, #12
 8000702:	dc1b      	bgt.n	800073c <__aeabi_dmul+0x134>
 8000704:	f104 0414 	add.w	r4, r4, #20
 8000708:	f1c4 0520 	rsb	r5, r4, #32
 800070c:	fa00 f305 	lsl.w	r3, r0, r5
 8000710:	fa20 f004 	lsr.w	r0, r0, r4
 8000714:	fa01 f205 	lsl.w	r2, r1, r5
 8000718:	ea40 0002 	orr.w	r0, r0, r2
 800071c:	f001 4200 	and.w	r2, r1, #2147483648	; 0x80000000
 8000720:	f021 4100 	bic.w	r1, r1, #2147483648	; 0x80000000
 8000724:	eb10 70d3 	adds.w	r0, r0, r3, lsr #31
 8000728:	fa21 f604 	lsr.w	r6, r1, r4
 800072c:	eb42 0106 	adc.w	r1, r2, r6
 8000730:	ea5e 0e43 	orrs.w	lr, lr, r3, lsl #1
 8000734:	bf08      	it	eq
 8000736:	ea20 70d3 	biceq.w	r0, r0, r3, lsr #31
 800073a:	bd70      	pop	{r4, r5, r6, pc}
 800073c:	f1c4 040c 	rsb	r4, r4, #12
 8000740:	f1c4 0520 	rsb	r5, r4, #32
 8000744:	fa00 f304 	lsl.w	r3, r0, r4
 8000748:	fa20 f005 	lsr.w	r0, r0, r5
 800074c:	fa01 f204 	lsl.w	r2, r1, r4
 8000750:	ea40 0002 	orr.w	r0, r0, r2
 8000754:	f001 4100 	and.w	r1, r1, #2147483648	; 0x80000000
 8000758:	eb10 70d3 	adds.w	r0, r0, r3, lsr #31
 800075c:	f141 0100 	adc.w	r1, r1, #0
 8000760:	ea5e 0e43 	orrs.w	lr, lr, r3, lsl #1
 8000764:	bf08      	it	eq
 8000766:	ea20 70d3 	biceq.w	r0, r0, r3, lsr #31
 800076a:	bd70      	pop	{r4, r5, r6, pc}
 800076c:	f1c4 0520 	rsb	r5, r4, #32
 8000770:	fa00 f205 	lsl.w	r2, r0, r5
 8000774:	ea4e 0e02 	orr.w	lr, lr, r2
 8000778:	fa20 f304 	lsr.w	r3, r0, r4
 800077c:	fa01 f205 	lsl.w	r2, r1, r5
 8000780:	ea43 0302 	orr.w	r3, r3, r2
 8000784:	fa21 f004 	lsr.w	r0, r1, r4
 8000788:	f001 4100 	and.w	r1, r1, #2147483648	; 0x80000000
 800078c:	fa21 f204 	lsr.w	r2, r1, r4
 8000790:	ea20 0002 	bic.w	r0, r0, r2
 8000794:	eb00 70d3 	add.w	r0, r0, r3, lsr #31
 8000798:	ea5e 0e43 	orrs.w	lr, lr, r3, lsl #1
 800079c:	bf08      	it	eq
 800079e:	ea20 70d3 	biceq.w	r0, r0, r3, lsr #31
 80007a2:	bd70      	pop	{r4, r5, r6, pc}
 80007a4:	f094 0f00 	teq	r4, #0
 80007a8:	d10f      	bne.n	80007ca <__aeabi_dmul+0x1c2>
 80007aa:	f001 4600 	and.w	r6, r1, #2147483648	; 0x80000000
 80007ae:	0040      	lsls	r0, r0, #1
 80007b0:	eb41 0101 	adc.w	r1, r1, r1
 80007b4:	f411 1f80 	tst.w	r1, #1048576	; 0x100000
 80007b8:	bf08      	it	eq
 80007ba:	3c01      	subeq	r4, #1
 80007bc:	d0f7      	beq.n	80007ae <__aeabi_dmul+0x1a6>
 80007be:	ea41 0106 	orr.w	r1, r1, r6
 80007c2:	f095 0f00 	teq	r5, #0
 80007c6:	bf18      	it	ne
 80007c8:	4770      	bxne	lr
 80007ca:	f003 4600 	and.w	r6, r3, #2147483648	; 0x80000000
 80007ce:	0052      	lsls	r2, r2, #1
 80007d0:	eb43 0303 	adc.w	r3, r3, r3
 80007d4:	f413 1f80 	tst.w	r3, #1048576	; 0x100000
 80007d8:	bf08      	it	eq
 80007da:	3d01      	subeq	r5, #1
 80007dc:	d0f7      	beq.n	80007ce <__aeabi_dmul+0x1c6>
 80007de:	ea43 0306 	orr.w	r3, r3, r6
 80007e2:	4770      	bx	lr
 80007e4:	ea94 0f0c 	teq	r4, ip
 80007e8:	ea0c 5513 	and.w	r5, ip, r3, lsr #20
 80007ec:	bf18      	it	ne
 80007ee:	ea95 0f0c 	teqne	r5, ip
 80007f2:	d00c      	beq.n	800080e <__aeabi_dmul+0x206>
 80007f4:	ea50 0641 	orrs.w	r6, r0, r1, lsl #1
 80007f8:	bf18      	it	ne
 80007fa:	ea52 0643 	orrsne.w	r6, r2, r3, lsl #1
 80007fe:	d1d1      	bne.n	80007a4 <__aeabi_dmul+0x19c>
 8000800:	ea81 0103 	eor.w	r1, r1, r3
 8000804:	f001 4100 	and.w	r1, r1, #2147483648	; 0x80000000
 8000808:	f04f 0000 	mov.w	r0, #0
 800080c:	bd70      	pop	{r4, r5, r6, pc}
 800080e:	ea50 0641 	orrs.w	r6, r0, r1, lsl #1
 8000812:	bf06      	itte	eq
 8000814:	4610      	moveq	r0, r2
 8000816:	4619      	moveq	r1, r3
 8000818:	ea52 0643 	orrsne.w	r6, r2, r3, lsl #1
 800081c:	d019      	beq.n	8000852 <__aeabi_dmul+0x24a>
 800081e:	ea94 0f0c 	teq	r4, ip
 8000822:	d102      	bne.n	800082a <__aeabi_dmul+0x222>
 8000824:	ea50 3601 	orrs.w	r6, r0, r1, lsl #12
 8000828:	d113      	bne.n	8000852 <__aeabi_dmul+0x24a>
 800082a:	ea95 0f0c 	teq	r5, ip
 800082e:	d105      	bne.n	800083c <__aeabi_dmul+0x234>
 8000830:	ea52 3603 	orrs.w	r6, r2, r3, lsl #12
 8000834:	bf1c      	itt	ne
 8000836:	4610      	movne	r0, r2
 8000838:	4619      	movne	r1, r3
 800083a:	d10a      	bne.n	8000852 <__aeabi_dmul+0x24a>
 800083c:	ea81 0103 	eor.w	r1, r1, r3
 8000840:	f001 4100 	and.w	r1, r1, #2147483648	; 0x80000000
 8000844:	f041 41fe 	orr.w	r1, r1, #2130706432	; 0x7f000000
 8000848:	f441 0170 	orr.w	r1, r1, #15728640	; 0xf00000
 800084c:	f04f 0000 	mov.w	r0, #0
 8000850:	bd70      	pop	{r4, r5, r6, pc}
 8000852:	f041 41fe 	orr.w	r1, r1, #2130706432	; 0x7f000000
 8000856:	f441 0178 	orr.w	r1, r1, #16252928	; 0xf80000
 800085a:	bd70      	pop	{r4, r5, r6, pc}

0800085c <__aeabi_ddiv>:
 800085c:	b570      	push	{r4, r5, r6, lr}
 800085e:	f04f 0cff 	mov.w	ip, #255	; 0xff
 8000862:	f44c 6ce0 	orr.w	ip, ip, #1792	; 0x700
 8000866:	ea1c 5411 	ands.w	r4, ip, r1, lsr #20
 800086a:	bf1d      	ittte	ne
 800086c:	ea1c 5513 	andsne.w	r5, ip, r3, lsr #20
 8000870:	ea94 0f0c 	teqne	r4, ip
 8000874:	ea95 0f0c 	teqne	r5, ip
 8000878:	f000 f8a7 	bleq	80009ca <__aeabi_ddiv+0x16e>
 800087c:	eba4 0405 	sub.w	r4, r4, r5
 8000880:	ea81 0e03 	eor.w	lr, r1, r3
 8000884:	ea52 3503 	orrs.w	r5, r2, r3, lsl #12
 8000888:	ea4f 3101 	mov.w	r1, r1, lsl #12
 800088c:	f000 8088 	beq.w	80009a0 <__aeabi_ddiv+0x144>
 8000890:	ea4f 3303 	mov.w	r3, r3, lsl #12
 8000894:	f04f 5580 	mov.w	r5, #268435456	; 0x10000000
 8000898:	ea45 1313 	orr.w	r3, r5, r3, lsr #4
 800089c:	ea43 6312 	orr.w	r3, r3, r2, lsr #24
 80008a0:	ea4f 2202 	mov.w	r2, r2, lsl #8
 80008a4:	ea45 1511 	orr.w	r5, r5, r1, lsr #4
 80008a8:	ea45 6510 	orr.w	r5, r5, r0, lsr #24
 80008ac:	ea4f 2600 	mov.w	r6, r0, lsl #8
 80008b0:	f00e 4100 	and.w	r1, lr, #2147483648	; 0x80000000
 80008b4:	429d      	cmp	r5, r3
 80008b6:	bf08      	it	eq
 80008b8:	4296      	cmpeq	r6, r2
 80008ba:	f144 04fd 	adc.w	r4, r4, #253	; 0xfd
 80008be:	f504 7440 	add.w	r4, r4, #768	; 0x300
 80008c2:	d202      	bcs.n	80008ca <__aeabi_ddiv+0x6e>
 80008c4:	085b      	lsrs	r3, r3, #1
 80008c6:	ea4f 0232 	mov.w	r2, r2, rrx
 80008ca:	1ab6      	subs	r6, r6, r2
 80008cc:	eb65 0503 	sbc.w	r5, r5, r3
 80008d0:	085b      	lsrs	r3, r3, #1
 80008d2:	ea4f 0232 	mov.w	r2, r2, rrx
 80008d6:	f44f 1080 	mov.w	r0, #1048576	; 0x100000
 80008da:	f44f 2c00 	mov.w	ip, #524288	; 0x80000
 80008de:	ebb6 0e02 	subs.w	lr, r6, r2
 80008e2:	eb75 0e03 	sbcs.w	lr, r5, r3
 80008e6:	bf22      	ittt	cs
 80008e8:	1ab6      	subcs	r6, r6, r2
 80008ea:	4675      	movcs	r5, lr
 80008ec:	ea40 000c 	orrcs.w	r0, r0, ip
 80008f0:	085b      	lsrs	r3, r3, #1
 80008f2:	ea4f 0232 	mov.w	r2, r2, rrx
 80008f6:	ebb6 0e02 	subs.w	lr, r6, r2
 80008fa:	eb75 0e03 	sbcs.w	lr, r5, r3
 80008fe:	bf22      	ittt	cs
 8000900:	1ab6      	subcs	r6, r6, r2
 8000902:	4675      	movcs	r5, lr
 8000904:	ea40 005c 	orrcs.w	r0, r0, ip, lsr #1
 8000908:	085b      	lsrs	r3, r3, #1
 800090a:	ea4f 0232 	mov.w	r2, r2, rrx
 800090e:	ebb6 0e02 	subs.w	lr, r6, r2
 8000912:	eb75 0e03 	sbcs.w	lr, r5, r3
 8000916:	bf22      	ittt	cs
 8000918:	1ab6      	subcs	r6, r6, r2
 800091a:	4675      	movcs	r5, lr
 800091c:	ea40 009c 	orrcs.w	r0, r0, ip, lsr #2
 8000920:	085b      	lsrs	r3, r3, #1
 8000922:	ea4f 0232 	mov.w	r2, r2, rrx
 8000926:	ebb6 0e02 	subs.w	lr, r6, r2
 800092a:	eb75 0e03 	sbcs.w	lr, r5, r3
 800092e:	bf22      	ittt	cs
 8000930:	1ab6      	subcs	r6, r6, r2
 8000932:	4675      	movcs	r5, lr
 8000934:	ea40 00dc 	orrcs.w	r0, r0, ip, lsr #3
 8000938:	ea55 0e06 	orrs.w	lr, r5, r6
 800093c:	d018      	beq.n	8000970 <__aeabi_ddiv+0x114>
 800093e:	ea4f 1505 	mov.w	r5, r5, lsl #4
 8000942:	ea45 7516 	orr.w	r5, r5, r6, lsr #28
 8000946:	ea4f 1606 	mov.w	r6, r6, lsl #4
 800094a:	ea4f 03c3 	mov.w	r3, r3, lsl #3
 800094e:	ea43 7352 	orr.w	r3, r3, r2, lsr #29
 8000952:	ea4f 02c2 	mov.w	r2, r2, lsl #3
 8000956:	ea5f 1c1c 	movs.w	ip, ip, lsr #4
 800095a:	d1c0      	bne.n	80008de <__aeabi_ddiv+0x82>
 800095c:	f411 1f80 	tst.w	r1, #1048576	; 0x100000
 8000960:	d10b      	bne.n	800097a <__aeabi_ddiv+0x11e>
 8000962:	ea41 0100 	orr.w	r1, r1, r0
 8000966:	f04f 0000 	mov.w	r0, #0
 800096a:	f04f 4c00 	mov.w	ip, #2147483648	; 0x80000000
 800096e:	e7b6      	b.n	80008de <__aeabi_ddiv+0x82>
 8000970:	f411 1f80 	tst.w	r1, #1048576	; 0x100000
 8000974:	bf04      	itt	eq
 8000976:	4301      	orreq	r1, r0
 8000978:	2000      	moveq	r0, #0
 800097a:	f1b4 0cfd 	subs.w	ip, r4, #253	; 0xfd
 800097e:	bf88      	it	hi
 8000980:	f5bc 6fe0 	cmphi.w	ip, #1792	; 0x700
 8000984:	f63f aeaf 	bhi.w	80006e6 <__aeabi_dmul+0xde>
 8000988:	ebb5 0c03 	subs.w	ip, r5, r3
 800098c:	bf04      	itt	eq
 800098e:	ebb6 0c02 	subseq.w	ip, r6, r2
 8000992:	ea5f 0c50 	movseq.w	ip, r0, lsr #1
 8000996:	f150 0000 	adcs.w	r0, r0, #0
 800099a:	eb41 5104 	adc.w	r1, r1, r4, lsl #20
 800099e:	bd70      	pop	{r4, r5, r6, pc}
 80009a0:	f00e 4e00 	and.w	lr, lr, #2147483648	; 0x80000000
 80009a4:	ea4e 3111 	orr.w	r1, lr, r1, lsr #12
 80009a8:	eb14 045c 	adds.w	r4, r4, ip, lsr #1
 80009ac:	bfc2      	ittt	gt
 80009ae:	ebd4 050c 	rsbsgt	r5, r4, ip
 80009b2:	ea41 5104 	orrgt.w	r1, r1, r4, lsl #20
 80009b6:	bd70      	popgt	{r4, r5, r6, pc}
 80009b8:	f441 1180 	orr.w	r1, r1, #1048576	; 0x100000
 80009bc:	f04f 0e00 	mov.w	lr, #0
 80009c0:	3c01      	subs	r4, #1
 80009c2:	e690      	b.n	80006e6 <__aeabi_dmul+0xde>
 80009c4:	ea45 0e06 	orr.w	lr, r5, r6
 80009c8:	e68d      	b.n	80006e6 <__aeabi_dmul+0xde>
 80009ca:	ea0c 5513 	and.w	r5, ip, r3, lsr #20
 80009ce:	ea94 0f0c 	teq	r4, ip
 80009d2:	bf08      	it	eq
 80009d4:	ea95 0f0c 	teqeq	r5, ip
 80009d8:	f43f af3b 	beq.w	8000852 <__aeabi_dmul+0x24a>
 80009dc:	ea94 0f0c 	teq	r4, ip
 80009e0:	d10a      	bne.n	80009f8 <__aeabi_ddiv+0x19c>
 80009e2:	ea50 3401 	orrs.w	r4, r0, r1, lsl #12
 80009e6:	f47f af34 	bne.w	8000852 <__aeabi_dmul+0x24a>
 80009ea:	ea95 0f0c 	teq	r5, ip
 80009ee:	f47f af25 	bne.w	800083c <__aeabi_dmul+0x234>
 80009f2:	4610      	mov	r0, r2
 80009f4:	4619      	mov	r1, r3
 80009f6:	e72c      	b.n	8000852 <__aeabi_dmul+0x24a>
 80009f8:	ea95 0f0c 	teq	r5, ip
 80009fc:	d106      	bne.n	8000a0c <__aeabi_ddiv+0x1b0>
 80009fe:	ea52 3503 	orrs.w	r5, r2, r3, lsl #12
 8000a02:	f43f aefd 	beq.w	8000800 <__aeabi_dmul+0x1f8>
 8000a06:	4610      	mov	r0, r2
 8000a08:	4619      	mov	r1, r3
 8000a0a:	e722      	b.n	8000852 <__aeabi_dmul+0x24a>
 8000a0c:	ea50 0641 	orrs.w	r6, r0, r1, lsl #1
 8000a10:	bf18      	it	ne
 8000a12:	ea52 0643 	orrsne.w	r6, r2, r3, lsl #1
 8000a16:	f47f aec5 	bne.w	80007a4 <__aeabi_dmul+0x19c>
 8000a1a:	ea50 0441 	orrs.w	r4, r0, r1, lsl #1
 8000a1e:	f47f af0d 	bne.w	800083c <__aeabi_dmul+0x234>
 8000a22:	ea52 0543 	orrs.w	r5, r2, r3, lsl #1
 8000a26:	f47f aeeb 	bne.w	8000800 <__aeabi_dmul+0x1f8>
 8000a2a:	e712      	b.n	8000852 <__aeabi_dmul+0x24a>

08000a2c <__gedf2>:
 8000a2c:	f04f 3cff 	mov.w	ip, #4294967295
 8000a30:	e006      	b.n	8000a40 <__cmpdf2+0x4>
 8000a32:	bf00      	nop

08000a34 <__ledf2>:
 8000a34:	f04f 0c01 	mov.w	ip, #1
 8000a38:	e002      	b.n	8000a40 <__cmpdf2+0x4>
 8000a3a:	bf00      	nop

08000a3c <__cmpdf2>:
 8000a3c:	f04f 0c01 	mov.w	ip, #1
 8000a40:	f84d cd04 	str.w	ip, [sp, #-4]!
 8000a44:	ea4f 0c41 	mov.w	ip, r1, lsl #1
 8000a48:	ea7f 5c6c 	mvns.w	ip, ip, asr #21
 8000a4c:	ea4f 0c43 	mov.w	ip, r3, lsl #1
 8000a50:	bf18      	it	ne
 8000a52:	ea7f 5c6c 	mvnsne.w	ip, ip, asr #21
 8000a56:	d01b      	beq.n	8000a90 <__cmpdf2+0x54>
 8000a58:	b001      	add	sp, #4
 8000a5a:	ea50 0c41 	orrs.w	ip, r0, r1, lsl #1
 8000a5e:	bf0c      	ite	eq
 8000a60:	ea52 0c43 	orrseq.w	ip, r2, r3, lsl #1
 8000a64:	ea91 0f03 	teqne	r1, r3
 8000a68:	bf02      	ittt	eq
 8000a6a:	ea90 0f02 	teqeq	r0, r2
 8000a6e:	2000      	moveq	r0, #0
 8000a70:	4770      	bxeq	lr
 8000a72:	f110 0f00 	cmn.w	r0, #0
 8000a76:	ea91 0f03 	teq	r1, r3
 8000a7a:	bf58      	it	pl
 8000a7c:	4299      	cmppl	r1, r3
 8000a7e:	bf08      	it	eq
 8000a80:	4290      	cmpeq	r0, r2
 8000a82:	bf2c      	ite	cs
 8000a84:	17d8      	asrcs	r0, r3, #31
 8000a86:	ea6f 70e3 	mvncc.w	r0, r3, asr #31
 8000a8a:	f040 0001 	orr.w	r0, r0, #1
 8000a8e:	4770      	bx	lr
 8000a90:	ea4f 0c41 	mov.w	ip, r1, lsl #1
 8000a94:	ea7f 5c6c 	mvns.w	ip, ip, asr #21
 8000a98:	d102      	bne.n	8000aa0 <__cmpdf2+0x64>
 8000a9a:	ea50 3c01 	orrs.w	ip, r0, r1, lsl #12
 8000a9e:	d107      	bne.n	8000ab0 <__cmpdf2+0x74>
 8000aa0:	ea4f 0c43 	mov.w	ip, r3, lsl #1
 8000aa4:	ea7f 5c6c 	mvns.w	ip, ip, asr #21
 8000aa8:	d1d6      	bne.n	8000a58 <__cmpdf2+0x1c>
 8000aaa:	ea52 3c03 	orrs.w	ip, r2, r3, lsl #12
 8000aae:	d0d3      	beq.n	8000a58 <__cmpdf2+0x1c>
 8000ab0:	f85d 0b04 	ldr.w	r0, [sp], #4
 8000ab4:	4770      	bx	lr
 8000ab6:	bf00      	nop

08000ab8 <__aeabi_cdrcmple>:
 8000ab8:	4684      	mov	ip, r0
 8000aba:	4610      	mov	r0, r2
 8000abc:	4662      	mov	r2, ip
 8000abe:	468c      	mov	ip, r1
 8000ac0:	4619      	mov	r1, r3
 8000ac2:	4663      	mov	r3, ip
 8000ac4:	e000      	b.n	8000ac8 <__aeabi_cdcmpeq>
 8000ac6:	bf00      	nop

08000ac8 <__aeabi_cdcmpeq>:
 8000ac8:	b501      	push	{r0, lr}
 8000aca:	f7ff ffb7 	bl	8000a3c <__cmpdf2>
 8000ace:	2800      	cmp	r0, #0
 8000ad0:	bf48      	it	mi
 8000ad2:	f110 0f00 	cmnmi.w	r0, #0
 8000ad6:	bd01      	pop	{r0, pc}

08000ad8 <__aeabi_dcmpeq>:
 8000ad8:	f84d ed08 	str.w	lr, [sp, #-8]!
 8000adc:	f7ff fff4 	bl	8000ac8 <__aeabi_cdcmpeq>
 8000ae0:	bf0c      	ite	eq
 8000ae2:	2001      	moveq	r0, #1
 8000ae4:	2000      	movne	r0, #0
 8000ae6:	f85d fb08 	ldr.w	pc, [sp], #8
 8000aea:	bf00      	nop

08000aec <__aeabi_dcmplt>:
 8000aec:	f84d ed08 	str.w	lr, [sp, #-8]!
 8000af0:	f7ff ffea 	bl	8000ac8 <__aeabi_cdcmpeq>
 8000af4:	bf34      	ite	cc
 8000af6:	2001      	movcc	r0, #1
 8000af8:	2000      	movcs	r0, #0
 8000afa:	f85d fb08 	ldr.w	pc, [sp], #8
 8000afe:	bf00      	nop

08000b00 <__aeabi_dcmple>:
 8000b00:	f84d ed08 	str.w	lr, [sp, #-8]!
 8000b04:	f7ff ffe0 	bl	8000ac8 <__aeabi_cdcmpeq>
 8000b08:	bf94      	ite	ls
 8000b0a:	2001      	movls	r0, #1
 8000b0c:	2000      	movhi	r0, #0
 8000b0e:	f85d fb08 	ldr.w	pc, [sp], #8
 8000b12:	bf00      	nop

08000b14 <__aeabi_dcmpge>:
 8000b14:	f84d ed08 	str.w	lr, [sp, #-8]!
 8000b18:	f7ff ffce 	bl	8000ab8 <__aeabi_cdrcmple>
 8000b1c:	bf94      	ite	ls
 8000b1e:	2001      	movls	r0, #1
 8000b20:	2000      	movhi	r0, #0
 8000b22:	f85d fb08 	ldr.w	pc, [sp], #8
 8000b26:	bf00      	nop

08000b28 <__aeabi_dcmpgt>:
 8000b28:	f84d ed08 	str.w	lr, [sp, #-8]!
 8000b2c:	f7ff ffc4 	bl	8000ab8 <__aeabi_cdrcmple>
 8000b30:	bf34      	ite	cc
 8000b32:	2001      	movcc	r0, #1
 8000b34:	2000      	movcs	r0, #0
 8000b36:	f85d fb08 	ldr.w	pc, [sp], #8
 8000b3a:	bf00      	nop

08000b3c <__aeabi_dcmpun>:
 8000b3c:	ea4f 0c41 	mov.w	ip, r1, lsl #1
 8000b40:	ea7f 5c6c 	mvns.w	ip, ip, asr #21
 8000b44:	d102      	bne.n	8000b4c <__aeabi_dcmpun+0x10>
 8000b46:	ea50 3c01 	orrs.w	ip, r0, r1, lsl #12
 8000b4a:	d10a      	bne.n	8000b62 <__aeabi_dcmpun+0x26>
 8000b4c:	ea4f 0c43 	mov.w	ip, r3, lsl #1
 8000b50:	ea7f 5c6c 	mvns.w	ip, ip, asr #21
 8000b54:	d102      	bne.n	8000b5c <__aeabi_dcmpun+0x20>
 8000b56:	ea52 3c03 	orrs.w	ip, r2, r3, lsl #12
 8000b5a:	d102      	bne.n	8000b62 <__aeabi_dcmpun+0x26>
 8000b5c:	f04f 0000 	mov.w	r0, #0
 8000b60:	4770      	bx	lr
 8000b62:	f04f 0001 	mov.w	r0, #1
 8000b66:	4770      	bx	lr

08000b68 <__aeabi_d2uiz>:
 8000b68:	004a      	lsls	r2, r1, #1
 8000b6a:	d211      	bcs.n	8000b90 <__aeabi_d2uiz+0x28>
 8000b6c:	f512 1200 	adds.w	r2, r2, #2097152	; 0x200000
 8000b70:	d211      	bcs.n	8000b96 <__aeabi_d2uiz+0x2e>
 8000b72:	d50d      	bpl.n	8000b90 <__aeabi_d2uiz+0x28>
 8000b74:	f46f 7378 	mvn.w	r3, #992	; 0x3e0
 8000b78:	ebb3 5262 	subs.w	r2, r3, r2, asr #21
 8000b7c:	d40e      	bmi.n	8000b9c <__aeabi_d2uiz+0x34>
 8000b7e:	ea4f 23c1 	mov.w	r3, r1, lsl #11
 8000b82:	f043 4300 	orr.w	r3, r3, #2147483648	; 0x80000000
 8000b86:	ea43 5350 	orr.w	r3, r3, r0, lsr #21
 8000b8a:	fa23 f002 	lsr.w	r0, r3, r2
 8000b8e:	4770      	bx	lr
 8000b90:	f04f 0000 	mov.w	r0, #0
 8000b94:	4770      	bx	lr
 8000b96:	ea50 3001 	orrs.w	r0, r0, r1, lsl #12
 8000b9a:	d102      	bne.n	8000ba2 <__aeabi_d2uiz+0x3a>
 8000b9c:	f04f 30ff 	mov.w	r0, #4294967295
 8000ba0:	4770      	bx	lr
 8000ba2:	f04f 0000 	mov.w	r0, #0
 8000ba6:	4770      	bx	lr

08000ba8 <__aeabi_uldivmod>:
 8000ba8:	b953      	cbnz	r3, 8000bc0 <__aeabi_uldivmod+0x18>
 8000baa:	b94a      	cbnz	r2, 8000bc0 <__aeabi_uldivmod+0x18>
 8000bac:	2900      	cmp	r1, #0
 8000bae:	bf08      	it	eq
 8000bb0:	2800      	cmpeq	r0, #0
 8000bb2:	bf1c      	itt	ne
 8000bb4:	f04f 31ff 	movne.w	r1, #4294967295
 8000bb8:	f04f 30ff 	movne.w	r0, #4294967295
 8000bbc:	f000 b96e 	b.w	8000e9c <__aeabi_idiv0>
 8000bc0:	f1ad 0c08 	sub.w	ip, sp, #8
 8000bc4:	e96d ce04 	strd	ip, lr, [sp, #-16]!
 8000bc8:	f000 f806 	bl	8000bd8 <__udivmoddi4>
 8000bcc:	f8dd e004 	ldr.w	lr, [sp, #4]
 8000bd0:	e9dd 2302 	ldrd	r2, r3, [sp, #8]
 8000bd4:	b004      	add	sp, #16
 8000bd6:	4770      	bx	lr

08000bd8 <__udivmoddi4>:
 8000bd8:	e92d 47f0 	stmdb	sp!, {r4, r5, r6, r7, r8, r9, sl, lr}
 8000bdc:	9d08      	ldr	r5, [sp, #32]
 8000bde:	4604      	mov	r4, r0
 8000be0:	468c      	mov	ip, r1
 8000be2:	2b00      	cmp	r3, #0
 8000be4:	f040 8083 	bne.w	8000cee <__udivmoddi4+0x116>
 8000be8:	428a      	cmp	r2, r1
 8000bea:	4617      	mov	r7, r2
 8000bec:	d947      	bls.n	8000c7e <__udivmoddi4+0xa6>
 8000bee:	fab2 f282 	clz	r2, r2
 8000bf2:	b142      	cbz	r2, 8000c06 <__udivmoddi4+0x2e>
 8000bf4:	f1c2 0020 	rsb	r0, r2, #32
 8000bf8:	fa24 f000 	lsr.w	r0, r4, r0
 8000bfc:	4091      	lsls	r1, r2
 8000bfe:	4097      	lsls	r7, r2
 8000c00:	ea40 0c01 	orr.w	ip, r0, r1
 8000c04:	4094      	lsls	r4, r2
 8000c06:	ea4f 4817 	mov.w	r8, r7, lsr #16
 8000c0a:	0c23      	lsrs	r3, r4, #16
 8000c0c:	fbbc f6f8 	udiv	r6, ip, r8
 8000c10:	fa1f fe87 	uxth.w	lr, r7
 8000c14:	fb08 c116 	mls	r1, r8, r6, ip
 8000c18:	ea43 4301 	orr.w	r3, r3, r1, lsl #16
 8000c1c:	fb06 f10e 	mul.w	r1, r6, lr
 8000c20:	4299      	cmp	r1, r3
 8000c22:	d909      	bls.n	8000c38 <__udivmoddi4+0x60>
 8000c24:	18fb      	adds	r3, r7, r3
 8000c26:	f106 30ff 	add.w	r0, r6, #4294967295
 8000c2a:	f080 8119 	bcs.w	8000e60 <__udivmoddi4+0x288>
 8000c2e:	4299      	cmp	r1, r3
 8000c30:	f240 8116 	bls.w	8000e60 <__udivmoddi4+0x288>
 8000c34:	3e02      	subs	r6, #2
 8000c36:	443b      	add	r3, r7
 8000c38:	1a5b      	subs	r3, r3, r1
 8000c3a:	b2a4      	uxth	r4, r4
 8000c3c:	fbb3 f0f8 	udiv	r0, r3, r8
 8000c40:	fb08 3310 	mls	r3, r8, r0, r3
 8000c44:	ea44 4403 	orr.w	r4, r4, r3, lsl #16
 8000c48:	fb00 fe0e 	mul.w	lr, r0, lr
 8000c4c:	45a6      	cmp	lr, r4
 8000c4e:	d909      	bls.n	8000c64 <__udivmoddi4+0x8c>
 8000c50:	193c      	adds	r4, r7, r4
 8000c52:	f100 33ff 	add.w	r3, r0, #4294967295
 8000c56:	f080 8105 	bcs.w	8000e64 <__udivmoddi4+0x28c>
 8000c5a:	45a6      	cmp	lr, r4
 8000c5c:	f240 8102 	bls.w	8000e64 <__udivmoddi4+0x28c>
 8000c60:	3802      	subs	r0, #2
 8000c62:	443c      	add	r4, r7
 8000c64:	ea40 4006 	orr.w	r0, r0, r6, lsl #16
 8000c68:	eba4 040e 	sub.w	r4, r4, lr
 8000c6c:	2600      	movs	r6, #0
 8000c6e:	b11d      	cbz	r5, 8000c78 <__udivmoddi4+0xa0>
 8000c70:	40d4      	lsrs	r4, r2
 8000c72:	2300      	movs	r3, #0
 8000c74:	e9c5 4300 	strd	r4, r3, [r5]
 8000c78:	4631      	mov	r1, r6
 8000c7a:	e8bd 87f0 	ldmia.w	sp!, {r4, r5, r6, r7, r8, r9, sl, pc}
 8000c7e:	b902      	cbnz	r2, 8000c82 <__udivmoddi4+0xaa>
 8000c80:	deff      	udf	#255	; 0xff
 8000c82:	fab2 f282 	clz	r2, r2
 8000c86:	2a00      	cmp	r2, #0
 8000c88:	d150      	bne.n	8000d2c <__udivmoddi4+0x154>
 8000c8a:	1bcb      	subs	r3, r1, r7
 8000c8c:	ea4f 4e17 	mov.w	lr, r7, lsr #16
 8000c90:	fa1f f887 	uxth.w	r8, r7
 8000c94:	2601      	movs	r6, #1
 8000c96:	fbb3 fcfe 	udiv	ip, r3, lr
 8000c9a:	0c21      	lsrs	r1, r4, #16
 8000c9c:	fb0e 331c 	mls	r3, lr, ip, r3
 8000ca0:	ea41 4103 	orr.w	r1, r1, r3, lsl #16
 8000ca4:	fb08 f30c 	mul.w	r3, r8, ip
 8000ca8:	428b      	cmp	r3, r1
 8000caa:	d907      	bls.n	8000cbc <__udivmoddi4+0xe4>
 8000cac:	1879      	adds	r1, r7, r1
 8000cae:	f10c 30ff 	add.w	r0, ip, #4294967295
 8000cb2:	d202      	bcs.n	8000cba <__udivmoddi4+0xe2>
 8000cb4:	428b      	cmp	r3, r1
 8000cb6:	f200 80e9 	bhi.w	8000e8c <__udivmoddi4+0x2b4>
 8000cba:	4684      	mov	ip, r0
 8000cbc:	1ac9      	subs	r1, r1, r3
 8000cbe:	b2a3      	uxth	r3, r4
 8000cc0:	fbb1 f0fe 	udiv	r0, r1, lr
 8000cc4:	fb0e 1110 	mls	r1, lr, r0, r1
 8000cc8:	ea43 4401 	orr.w	r4, r3, r1, lsl #16
 8000ccc:	fb08 f800 	mul.w	r8, r8, r0
 8000cd0:	45a0      	cmp	r8, r4
 8000cd2:	d907      	bls.n	8000ce4 <__udivmoddi4+0x10c>
 8000cd4:	193c      	adds	r4, r7, r4
 8000cd6:	f100 33ff 	add.w	r3, r0, #4294967295
 8000cda:	d202      	bcs.n	8000ce2 <__udivmoddi4+0x10a>
 8000cdc:	45a0      	cmp	r8, r4
 8000cde:	f200 80d9 	bhi.w	8000e94 <__udivmoddi4+0x2bc>
 8000ce2:	4618      	mov	r0, r3
 8000ce4:	eba4 0408 	sub.w	r4, r4, r8
 8000ce8:	ea40 400c 	orr.w	r0, r0, ip, lsl #16
 8000cec:	e7bf      	b.n	8000c6e <__udivmoddi4+0x96>
 8000cee:	428b      	cmp	r3, r1
 8000cf0:	d909      	bls.n	8000d06 <__udivmoddi4+0x12e>
 8000cf2:	2d00      	cmp	r5, #0
 8000cf4:	f000 80b1 	beq.w	8000e5a <__udivmoddi4+0x282>
 8000cf8:	2600      	movs	r6, #0
 8000cfa:	e9c5 0100 	strd	r0, r1, [r5]
 8000cfe:	4630      	mov	r0, r6
 8000d00:	4631      	mov	r1, r6
 8000d02:	e8bd 87f0 	ldmia.w	sp!, {r4, r5, r6, r7, r8, r9, sl, pc}
 8000d06:	fab3 f683 	clz	r6, r3
 8000d0a:	2e00      	cmp	r6, #0
 8000d0c:	d14a      	bne.n	8000da4 <__udivmoddi4+0x1cc>
 8000d0e:	428b      	cmp	r3, r1
 8000d10:	d302      	bcc.n	8000d18 <__udivmoddi4+0x140>
 8000d12:	4282      	cmp	r2, r0
 8000d14:	f200 80b8 	bhi.w	8000e88 <__udivmoddi4+0x2b0>
 8000d18:	1a84      	subs	r4, r0, r2
 8000d1a:	eb61 0103 	sbc.w	r1, r1, r3
 8000d1e:	2001      	movs	r0, #1
 8000d20:	468c      	mov	ip, r1
 8000d22:	2d00      	cmp	r5, #0
 8000d24:	d0a8      	beq.n	8000c78 <__udivmoddi4+0xa0>
 8000d26:	e9c5 4c00 	strd	r4, ip, [r5]
 8000d2a:	e7a5      	b.n	8000c78 <__udivmoddi4+0xa0>
 8000d2c:	f1c2 0320 	rsb	r3, r2, #32
 8000d30:	fa20 f603 	lsr.w	r6, r0, r3
 8000d34:	4097      	lsls	r7, r2
 8000d36:	fa01 f002 	lsl.w	r0, r1, r2
 8000d3a:	ea4f 4e17 	mov.w	lr, r7, lsr #16
 8000d3e:	40d9      	lsrs	r1, r3
 8000d40:	4330      	orrs	r0, r6
 8000d42:	0c03      	lsrs	r3, r0, #16
 8000d44:	fbb1 f6fe 	udiv	r6, r1, lr
 8000d48:	fa1f f887 	uxth.w	r8, r7
 8000d4c:	fb0e 1116 	mls	r1, lr, r6, r1
 8000d50:	ea43 4301 	orr.w	r3, r3, r1, lsl #16
 8000d54:	fb06 f108 	mul.w	r1, r6, r8
 8000d58:	4299      	cmp	r1, r3
 8000d5a:	fa04 f402 	lsl.w	r4, r4, r2
 8000d5e:	d909      	bls.n	8000d74 <__udivmoddi4+0x19c>
 8000d60:	18fb      	adds	r3, r7, r3
 8000d62:	f106 3cff 	add.w	ip, r6, #4294967295
 8000d66:	f080 808d 	bcs.w	8000e84 <__udivmoddi4+0x2ac>
 8000d6a:	4299      	cmp	r1, r3
 8000d6c:	f240 808a 	bls.w	8000e84 <__udivmoddi4+0x2ac>
 8000d70:	3e02      	subs	r6, #2
 8000d72:	443b      	add	r3, r7
 8000d74:	1a5b      	subs	r3, r3, r1
 8000d76:	b281      	uxth	r1, r0
 8000d78:	fbb3 f0fe 	udiv	r0, r3, lr
 8000d7c:	fb0e 3310 	mls	r3, lr, r0, r3
 8000d80:	ea41 4103 	orr.w	r1, r1, r3, lsl #16
 8000d84:	fb00 f308 	mul.w	r3, r0, r8
 8000d88:	428b      	cmp	r3, r1
 8000d8a:	d907      	bls.n	8000d9c <__udivmoddi4+0x1c4>
 8000d8c:	1879      	adds	r1, r7, r1
 8000d8e:	f100 3cff 	add.w	ip, r0, #4294967295
 8000d92:	d273      	bcs.n	8000e7c <__udivmoddi4+0x2a4>
 8000d94:	428b      	cmp	r3, r1
 8000d96:	d971      	bls.n	8000e7c <__udivmoddi4+0x2a4>
 8000d98:	3802      	subs	r0, #2
 8000d9a:	4439      	add	r1, r7
 8000d9c:	1acb      	subs	r3, r1, r3
 8000d9e:	ea40 4606 	orr.w	r6, r0, r6, lsl #16
 8000da2:	e778      	b.n	8000c96 <__udivmoddi4+0xbe>
 8000da4:	f1c6 0c20 	rsb	ip, r6, #32
 8000da8:	fa03 f406 	lsl.w	r4, r3, r6
 8000dac:	fa22 f30c 	lsr.w	r3, r2, ip
 8000db0:	431c      	orrs	r4, r3
 8000db2:	fa20 f70c 	lsr.w	r7, r0, ip
 8000db6:	fa01 f306 	lsl.w	r3, r1, r6
 8000dba:	ea4f 4e14 	mov.w	lr, r4, lsr #16
 8000dbe:	fa21 f10c 	lsr.w	r1, r1, ip
 8000dc2:	431f      	orrs	r7, r3
 8000dc4:	0c3b      	lsrs	r3, r7, #16
 8000dc6:	fbb1 f9fe 	udiv	r9, r1, lr
 8000dca:	fa1f f884 	uxth.w	r8, r4
 8000dce:	fb0e 1119 	mls	r1, lr, r9, r1
 8000dd2:	ea43 4101 	orr.w	r1, r3, r1, lsl #16
 8000dd6:	fb09 fa08 	mul.w	sl, r9, r8
 8000dda:	458a      	cmp	sl, r1
 8000ddc:	fa02 f206 	lsl.w	r2, r2, r6
 8000de0:	fa00 f306 	lsl.w	r3, r0, r6
 8000de4:	d908      	bls.n	8000df8 <__udivmoddi4+0x220>
 8000de6:	1861      	adds	r1, r4, r1
 8000de8:	f109 30ff 	add.w	r0, r9, #4294967295
 8000dec:	d248      	bcs.n	8000e80 <__udivmoddi4+0x2a8>
 8000dee:	458a      	cmp	sl, r1
 8000df0:	d946      	bls.n	8000e80 <__udivmoddi4+0x2a8>
 8000df2:	f1a9 0902 	sub.w	r9, r9, #2
 8000df6:	4421      	add	r1, r4
 8000df8:	eba1 010a 	sub.w	r1, r1, sl
 8000dfc:	b2bf      	uxth	r7, r7
 8000dfe:	fbb1 f0fe 	udiv	r0, r1, lr
 8000e02:	fb0e 1110 	mls	r1, lr, r0, r1
 8000e06:	ea47 4701 	orr.w	r7, r7, r1, lsl #16
 8000e0a:	fb00 f808 	mul.w	r8, r0, r8
 8000e0e:	45b8      	cmp	r8, r7
 8000e10:	d907      	bls.n	8000e22 <__udivmoddi4+0x24a>
 8000e12:	19e7      	adds	r7, r4, r7
 8000e14:	f100 31ff 	add.w	r1, r0, #4294967295
 8000e18:	d22e      	bcs.n	8000e78 <__udivmoddi4+0x2a0>
 8000e1a:	45b8      	cmp	r8, r7
 8000e1c:	d92c      	bls.n	8000e78 <__udivmoddi4+0x2a0>
 8000e1e:	3802      	subs	r0, #2
 8000e20:	4427      	add	r7, r4
 8000e22:	ea40 4009 	orr.w	r0, r0, r9, lsl #16
 8000e26:	eba7 0708 	sub.w	r7, r7, r8
 8000e2a:	fba0 8902 	umull	r8, r9, r0, r2
 8000e2e:	454f      	cmp	r7, r9
 8000e30:	46c6      	mov	lr, r8
 8000e32:	4649      	mov	r1, r9
 8000e34:	d31a      	bcc.n	8000e6c <__udivmoddi4+0x294>
 8000e36:	d017      	beq.n	8000e68 <__udivmoddi4+0x290>
 8000e38:	b15d      	cbz	r5, 8000e52 <__udivmoddi4+0x27a>
 8000e3a:	ebb3 020e 	subs.w	r2, r3, lr
 8000e3e:	eb67 0701 	sbc.w	r7, r7, r1
 8000e42:	fa07 fc0c 	lsl.w	ip, r7, ip
 8000e46:	40f2      	lsrs	r2, r6
 8000e48:	ea4c 0202 	orr.w	r2, ip, r2
 8000e4c:	40f7      	lsrs	r7, r6
 8000e4e:	e9c5 2700 	strd	r2, r7, [r5]
 8000e52:	2600      	movs	r6, #0
 8000e54:	4631      	mov	r1, r6
 8000e56:	e8bd 87f0 	ldmia.w	sp!, {r4, r5, r6, r7, r8, r9, sl, pc}
 8000e5a:	462e      	mov	r6, r5
 8000e5c:	4628      	mov	r0, r5
 8000e5e:	e70b      	b.n	8000c78 <__udivmoddi4+0xa0>
 8000e60:	4606      	mov	r6, r0
 8000e62:	e6e9      	b.n	8000c38 <__udivmoddi4+0x60>
 8000e64:	4618      	mov	r0, r3
 8000e66:	e6fd      	b.n	8000c64 <__udivmoddi4+0x8c>
 8000e68:	4543      	cmp	r3, r8
 8000e6a:	d2e5      	bcs.n	8000e38 <__udivmoddi4+0x260>
 8000e6c:	ebb8 0e02 	subs.w	lr, r8, r2
 8000e70:	eb69 0104 	sbc.w	r1, r9, r4
 8000e74:	3801      	subs	r0, #1
 8000e76:	e7df      	b.n	8000e38 <__udivmoddi4+0x260>
 8000e78:	4608      	mov	r0, r1
 8000e7a:	e7d2      	b.n	8000e22 <__udivmoddi4+0x24a>
 8000e7c:	4660      	mov	r0, ip
 8000e7e:	e78d      	b.n	8000d9c <__udivmoddi4+0x1c4>
 8000e80:	4681      	mov	r9, r0
 8000e82:	e7b9      	b.n	8000df8 <__udivmoddi4+0x220>
 8000e84:	4666      	mov	r6, ip
 8000e86:	e775      	b.n	8000d74 <__udivmoddi4+0x19c>
 8000e88:	4630      	mov	r0, r6
 8000e8a:	e74a      	b.n	8000d22 <__udivmoddi4+0x14a>
 8000e8c:	f1ac 0c02 	sub.w	ip, ip, #2
 8000e90:	4439      	add	r1, r7
 8000e92:	e713      	b.n	8000cbc <__udivmoddi4+0xe4>
 8000e94:	3802      	subs	r0, #2
 8000e96:	443c      	add	r4, r7
 8000e98:	e724      	b.n	8000ce4 <__udivmoddi4+0x10c>
 8000e9a:	bf00      	nop

08000e9c <__aeabi_idiv0>:
 8000e9c:	4770      	bx	lr
 8000e9e:	bf00      	nop

08000ea0 <_ZN4core9Component4initEv>:
 8000ea0:	4770      	bx	lr

08000ea2 <_ZN7console10ControllerD1Ev>:
 8000ea2:	4770      	bx	lr

08000ea4 <_ZN4core10EmptyEvent7executeEPNS_18AbstractEventQueueE>:
 8000ea4:	b410      	push	{r4}
 8000ea6:	6902      	ldr	r2, [r0, #16]
 8000ea8:	6881      	ldr	r1, [r0, #8]
 8000eaa:	1054      	asrs	r4, r2, #1
 8000eac:	4603      	mov	r3, r0
 8000eae:	eb01 0062 	add.w	r0, r1, r2, asr #1
 8000eb2:	07d2      	lsls	r2, r2, #31
 8000eb4:	bf48      	it	mi
 8000eb6:	590a      	ldrmi	r2, [r1, r4]
 8000eb8:	68db      	ldr	r3, [r3, #12]
 8000eba:	f85d 4b04 	ldr.w	r4, [sp], #4
 8000ebe:	bf48      	it	mi
 8000ec0:	58d3      	ldrmi	r3, [r2, r3]
 8000ec2:	4718      	bx	r3

08000ec4 <_ZN4core7Machine9NullStateEv>:
 8000ec4:	4770      	bx	lr

08000ec6 <_ZN4core7Machine6check_EhMS0_FvvE>:
 8000ec6:	b082      	sub	sp, #8
 8000ec8:	a902      	add	r1, sp, #8
 8000eca:	2000      	movs	r0, #0
 8000ecc:	e901 000c 	stmdb	r1, {r2, r3}
 8000ed0:	b002      	add	sp, #8
 8000ed2:	4770      	bx	lr

08000ed4 <__tcf_3>:
 8000ed4:	4770      	bx	lr

08000ed6 <_ZN4core11ByteMachineIhED1Ev>:
 8000ed6:	4770      	bx	lr

08000ed8 <_ZN4core11ByteMachineIhE8execute_ERKh>:
 8000ed8:	b510      	push	{r4, lr}
 8000eda:	780b      	ldrb	r3, [r1, #0]
 8000edc:	6902      	ldr	r2, [r0, #16]
 8000ede:	7503      	strb	r3, [r0, #20]
 8000ee0:	2300      	movs	r3, #0
 8000ee2:	e9c0 3301 	strd	r3, r3, [r0, #4]
 8000ee6:	4604      	mov	r4, r0
 8000ee8:	1051      	asrs	r1, r2, #1
 8000eea:	eb00 0062 	add.w	r0, r0, r2, asr #1
 8000eee:	07d2      	lsls	r2, r2, #31
 8000ef0:	68e3      	ldr	r3, [r4, #12]
 8000ef2:	bf44      	itt	mi
 8000ef4:	5862      	ldrmi	r2, [r4, r1]
 8000ef6:	58d3      	ldrmi	r3, [r2, r3]
 8000ef8:	4798      	blx	r3
 8000efa:	6863      	ldr	r3, [r4, #4]
 8000efc:	b913      	cbnz	r3, 8000f04 <_ZN4core11ByteMachineIhE8execute_ERKh+0x2c>
 8000efe:	68a3      	ldr	r3, [r4, #8]
 8000f00:	07db      	lsls	r3, r3, #31
 8000f02:	d505      	bpl.n	8000f10 <_ZN4core11ByteMachineIhE8execute_ERKh+0x38>
 8000f04:	e9d4 0101 	ldrd	r0, r1, [r4, #4]
 8000f08:	f104 030c 	add.w	r3, r4, #12
 8000f0c:	e883 0003 	stmia.w	r3, {r0, r1}
 8000f10:	bd10      	pop	{r4, pc}

08000f12 <_ZN4core10FixedEventIhED1Ev>:
 8000f12:	4770      	bx	lr

08000f14 <_ZN4core10EmptyEventD1Ev>:
 8000f14:	4770      	bx	lr

08000f16 <_ZN4core11ByteMachineIhE6start_EMNS_7MachineEFvvE>:
 8000f16:	b513      	push	{r0, r1, r4, lr}
 8000f18:	466c      	mov	r4, sp
 8000f1a:	e884 0006 	stmia.w	r4, {r1, r2}
 8000f1e:	f100 030c 	add.w	r3, r0, #12
 8000f22:	e894 0003 	ldmia.w	r4, {r0, r1}
 8000f26:	e883 0005 	stmia.w	r3, {r0, r2}
 8000f2a:	b002      	add	sp, #8
 8000f2c:	bd10      	pop	{r4, pc}

08000f2e <_ZN4core10FixedEventIhE7executeEPNS_18AbstractEventQueueE>:
 8000f2e:	b513      	push	{r0, r1, r4, lr}
 8000f30:	680b      	ldr	r3, [r1, #0]
 8000f32:	4604      	mov	r4, r0
 8000f34:	685b      	ldr	r3, [r3, #4]
 8000f36:	4608      	mov	r0, r1
 8000f38:	2201      	movs	r2, #1
 8000f3a:	f10d 0107 	add.w	r1, sp, #7
 8000f3e:	4798      	blx	r3
 8000f40:	6923      	ldr	r3, [r4, #16]
 8000f42:	68a2      	ldr	r2, [r4, #8]
 8000f44:	1059      	asrs	r1, r3, #1
 8000f46:	f013 0f01 	tst.w	r3, #1
 8000f4a:	eb02 0063 	add.w	r0, r2, r3, asr #1
 8000f4e:	bf18      	it	ne
 8000f50:	5852      	ldrne	r2, [r2, r1]
 8000f52:	68e3      	ldr	r3, [r4, #12]
 8000f54:	f10d 0107 	add.w	r1, sp, #7
 8000f58:	bf18      	it	ne
 8000f5a:	58d3      	ldrne	r3, [r2, r3]
 8000f5c:	4798      	blx	r3
 8000f5e:	b002      	add	sp, #8
 8000f60:	bd10      	pop	{r4, pc}

08000f62 <_ZN7console10ControllerD0Ev>:
 8000f62:	b510      	push	{r4, lr}
 8000f64:	2158      	movs	r1, #88	; 0x58
 8000f66:	4604      	mov	r4, r0
 8000f68:	f003 f9c2 	bl	80042f0 <_ZdlPvj>
 8000f6c:	4620      	mov	r0, r4
 8000f6e:	bd10      	pop	{r4, pc}

08000f70 <_ZN4core10EmptyEventD0Ev>:
 8000f70:	b510      	push	{r4, lr}
 8000f72:	2114      	movs	r1, #20
 8000f74:	4604      	mov	r4, r0
 8000f76:	f003 f9bb 	bl	80042f0 <_ZdlPvj>
 8000f7a:	4620      	mov	r0, r4
 8000f7c:	bd10      	pop	{r4, pc}

08000f7e <_ZN4core11ByteMachineIhED0Ev>:
 8000f7e:	b510      	push	{r4, lr}
 8000f80:	212c      	movs	r1, #44	; 0x2c
 8000f82:	4604      	mov	r4, r0
 8000f84:	f003 f9b4 	bl	80042f0 <_ZdlPvj>
 8000f88:	4620      	mov	r0, r4
 8000f8a:	bd10      	pop	{r4, pc}

08000f8c <_ZN4core10FixedEventIhED0Ev>:
 8000f8c:	b510      	push	{r4, lr}
 8000f8e:	2114      	movs	r1, #20
 8000f90:	4604      	mov	r4, r0
 8000f92:	f003 f9ad 	bl	80042f0 <_ZdlPvj>
 8000f96:	4620      	mov	r0, r4
 8000f98:	bd10      	pop	{r4, pc}
	...

08000f9c <_ZN7console6Driver8instanceEv>:
 8000f9c:	b570      	push	{r4, r5, r6, lr}
 8000f9e:	4e22      	ldr	r6, [pc, #136]	; (8001028 <_ZN7console6Driver8instanceEv+0x8c>)
 8000fa0:	7835      	ldrb	r5, [r6, #0]
 8000fa2:	f3bf 8f5b 	dmb	ish
 8000fa6:	f015 0501 	ands.w	r5, r5, #1
 8000faa:	d13a      	bne.n	8001022 <_ZN7console6Driver8instanceEv+0x86>
 8000fac:	4630      	mov	r0, r6
 8000fae:	f003 f9a1 	bl	80042f4 <__cxa_guard_acquire>
 8000fb2:	2800      	cmp	r0, #0
 8000fb4:	d035      	beq.n	8001022 <_ZN7console6Driver8instanceEv+0x86>
 8000fb6:	4c1d      	ldr	r4, [pc, #116]	; (800102c <_ZN7console6Driver8instanceEv+0x90>)
 8000fb8:	4b1d      	ldr	r3, [pc, #116]	; (8001030 <_ZN7console6Driver8instanceEv+0x94>)
 8000fba:	4620      	mov	r0, r4
 8000fbc:	e9c4 3503 	strd	r3, r5, [r4, #12]
 8000fc0:	4b1c      	ldr	r3, [pc, #112]	; (8001034 <_ZN7console6Driver8instanceEv+0x98>)
 8000fc2:	f840 3b18 	str.w	r3, [r0], #24
 8000fc6:	e9c4 5501 	strd	r5, r5, [r4, #4]
 8000fca:	f001 f863 	bl	8002094 <_ZN4core5EventC1Ev>
 8000fce:	4b1a      	ldr	r3, [pc, #104]	; (8001038 <_ZN7console6Driver8instanceEv+0x9c>)
 8000fd0:	61a3      	str	r3, [r4, #24]
 8000fd2:	4b1a      	ldr	r3, [pc, #104]	; (800103c <_ZN7console6Driver8instanceEv+0xa0>)
 8000fd4:	6224      	str	r4, [r4, #32]
 8000fd6:	4620      	mov	r0, r4
 8000fd8:	e9c4 3509 	strd	r3, r5, [r4, #36]	; 0x24
 8000fdc:	4b18      	ldr	r3, [pc, #96]	; (8001040 <_ZN7console6Driver8instanceEv+0xa4>)
 8000fde:	f840 3b2c 	str.w	r3, [r0], #44
 8000fe2:	f001 f857 	bl	8002094 <_ZN4core5EventC1Ev>
 8000fe6:	4b17      	ldr	r3, [pc, #92]	; (8001044 <_ZN7console6Driver8instanceEv+0xa8>)
 8000fe8:	62e3      	str	r3, [r4, #44]	; 0x2c
 8000fea:	4b17      	ldr	r3, [pc, #92]	; (8001048 <_ZN7console6Driver8instanceEv+0xac>)
 8000fec:	6364      	str	r4, [r4, #52]	; 0x34
 8000fee:	f44f 6200 	mov.w	r2, #2048	; 0x800
 8000ff2:	e9c4 350e 	strd	r3, r5, [r4, #56]	; 0x38
 8000ff6:	f8a4 2840 	strh.w	r2, [r4, #2112]	; 0x840
 8000ffa:	f104 0340 	add.w	r3, r4, #64	; 0x40
 8000ffe:	f504 6204 	add.w	r2, r4, #2112	; 0x840
 8001002:	4630      	mov	r0, r6
 8001004:	f8c4 3844 	str.w	r3, [r4, #2116]	; 0x844
 8001008:	f8c4 2848 	str.w	r2, [r4, #2120]	; 0x848
 800100c:	f8c4 384c 	str.w	r3, [r4, #2124]	; 0x84c
 8001010:	f8c4 3850 	str.w	r3, [r4, #2128]	; 0x850
 8001014:	f884 5854 	strb.w	r5, [r4, #2132]	; 0x854
 8001018:	f003 f978 	bl	800430c <__cxa_guard_release>
 800101c:	480b      	ldr	r0, [pc, #44]	; (800104c <_ZN7console6Driver8instanceEv+0xb0>)
 800101e:	f004 f964 	bl	80052ea <atexit>
 8001022:	4802      	ldr	r0, [pc, #8]	; (800102c <_ZN7console6Driver8instanceEv+0x90>)
 8001024:	bd70      	pop	{r4, r5, r6, pc}
 8001026:	bf00      	nop
 8001028:	2000009c 	.word	0x2000009c
 800102c:	200000a0 	.word	0x200000a0
 8001030:	08000ec5 	.word	0x08000ec5
 8001034:	08005de0 	.word	0x08005de0
 8001038:	08005dcc 	.word	0x08005dcc
 800103c:	08000ed9 	.word	0x08000ed9
 8001040:	08005e10 	.word	0x08005e10
 8001044:	08005db8 	.word	0x08005db8
 8001048:	08001447 	.word	0x08001447
 800104c:	08000ed5 	.word	0x08000ed5

08001050 <_ZN7console10Controller4initEv>:
 8001050:	b510      	push	{r4, lr}
 8001052:	4604      	mov	r4, r0
 8001054:	f7ff ffa2 	bl	8000f9c <_ZN7console6Driver8instanceEv>
 8001058:	6803      	ldr	r3, [r0, #0]
 800105a:	681b      	ldr	r3, [r3, #0]
 800105c:	4798      	blx	r3
 800105e:	f104 0008 	add.w	r0, r4, #8
 8001062:	f04f 32ff 	mov.w	r2, #4294967295
 8001066:	e8bd 4010 	ldmia.w	sp!, {r4, lr}
 800106a:	2114      	movs	r1, #20
 800106c:	f001 b913 	b.w	8002296 <_ZN4core4Task5startEml>

08001070 <_ZN7console10Controller5printEPKc>:
 8001070:	b513      	push	{r0, r1, r4, lr}
 8001072:	4608      	mov	r0, r1
 8001074:	9101      	str	r1, [sp, #4]
 8001076:	f7ff f8b3 	bl	80001e0 <strlen>
 800107a:	4604      	mov	r4, r0
 800107c:	f7ff ff8e 	bl	8000f9c <_ZN7console6Driver8instanceEv>
 8001080:	1c62      	adds	r2, r4, #1
 8001082:	9b01      	ldr	r3, [sp, #4]
 8001084:	b2d2      	uxtb	r2, r2
 8001086:	2101      	movs	r1, #1
 8001088:	b002      	add	sp, #8
 800108a:	e8bd 4010 	ldmia.w	sp!, {r4, lr}
 800108e:	f000 b985 	b.w	800139c <_ZN7console6Driver10sendPacketEthPKh>

08001092 <_ZN7console10Controller6printfEPKcz>:
 8001092:	b40e      	push	{r1, r2, r3}
 8001094:	b510      	push	{r4, lr}
 8001096:	b0c3      	sub	sp, #268	; 0x10c
 8001098:	aa45      	add	r2, sp, #276	; 0x114
 800109a:	a802      	add	r0, sp, #8
 800109c:	f852 1b04 	ldr.w	r1, [r2], #4
 80010a0:	9201      	str	r2, [sp, #4]
 80010a2:	f004 fab7 	bl	8005614 <vsiprintf>
 80010a6:	4604      	mov	r4, r0
 80010a8:	f7ff ff78 	bl	8000f9c <_ZN7console6Driver8instanceEv>
 80010ac:	1c62      	adds	r2, r4, #1
 80010ae:	ab02      	add	r3, sp, #8
 80010b0:	b2d2      	uxtb	r2, r2
 80010b2:	2101      	movs	r1, #1
 80010b4:	f000 f972 	bl	800139c <_ZN7console6Driver10sendPacketEthPKh>
 80010b8:	b043      	add	sp, #268	; 0x10c
 80010ba:	e8bd 4010 	ldmia.w	sp!, {r4, lr}
 80010be:	b003      	add	sp, #12
 80010c0:	4770      	bx	lr

080010c2 <_ZN7console10Controller15registerCommandEtPFvthPhE>:
 80010c2:	b570      	push	{r4, r5, r6, lr}
 80010c4:	4604      	mov	r4, r0
 80010c6:	200c      	movs	r0, #12
 80010c8:	4615      	mov	r5, r2
 80010ca:	460e      	mov	r6, r1
 80010cc:	f003 f921 	bl	8004312 <_Znwj>
 80010d0:	6aa2      	ldr	r2, [r4, #40]	; 0x28
 80010d2:	8006      	strh	r6, [r0, #0]
 80010d4:	6045      	str	r5, [r0, #4]
 80010d6:	6082      	str	r2, [r0, #8]
 80010d8:	62a0      	str	r0, [r4, #40]	; 0x28
 80010da:	bd70      	pop	{r4, r5, r6, pc}

080010dc <_ZN7console10Controller14processCommandEthPh>:
 80010dc:	b430      	push	{r4, r5}
 80010de:	6a84      	ldr	r4, [r0, #40]	; 0x28
 80010e0:	460d      	mov	r5, r1
 80010e2:	4611      	mov	r1, r2
 80010e4:	461a      	mov	r2, r3
 80010e6:	b144      	cbz	r4, 80010fa <_ZN7console10Controller14processCommandEthPh+0x1e>
 80010e8:	8823      	ldrh	r3, [r4, #0]
 80010ea:	42ab      	cmp	r3, r5
 80010ec:	d103      	bne.n	80010f6 <_ZN7console10Controller14processCommandEthPh+0x1a>
 80010ee:	6863      	ldr	r3, [r4, #4]
 80010f0:	4628      	mov	r0, r5
 80010f2:	bc30      	pop	{r4, r5}
 80010f4:	4718      	bx	r3
 80010f6:	68a4      	ldr	r4, [r4, #8]
 80010f8:	e7f5      	b.n	80010e6 <_ZN7console10Controller14processCommandEthPh+0xa>
 80010fa:	bc30      	pop	{r4, r5}
 80010fc:	4770      	bx	lr

080010fe <_ZN7console10Controller15updateTextFieldEthPh>:
 80010fe:	b5f0      	push	{r4, r5, r6, r7, lr}
 8001100:	2af4      	cmp	r2, #244	; 0xf4
 8001102:	b083      	sub	sp, #12
 8001104:	4614      	mov	r4, r2
 8001106:	af00      	add	r7, sp, #0
 8001108:	4618      	mov	r0, r3
 800110a:	466d      	mov	r5, sp
 800110c:	d81f      	bhi.n	800114e <_ZN7console10Controller15updateTextFieldEthPh+0x50>
 800110e:	f102 0309 	add.w	r3, r2, #9
 8001112:	f403 73fc 	and.w	r3, r3, #504	; 0x1f8
 8001116:	ebad 0d03 	sub.w	sp, sp, r3
 800111a:	0a0a      	lsrs	r2, r1, #8
 800111c:	f88d 2000 	strb.w	r2, [sp]
 8001120:	f88d 1001 	strb.w	r1, [sp, #1]
 8001124:	466b      	mov	r3, sp
 8001126:	f10d 0102 	add.w	r1, sp, #2
 800112a:	2200      	movs	r2, #0
 800112c:	4294      	cmp	r4, r2
 800112e:	dd04      	ble.n	800113a <_ZN7console10Controller15updateTextFieldEthPh+0x3c>
 8001130:	5c86      	ldrb	r6, [r0, r2]
 8001132:	f801 6b01 	strb.w	r6, [r1], #1
 8001136:	3201      	adds	r2, #1
 8001138:	e7f8      	b.n	800112c <_ZN7console10Controller15updateTextFieldEthPh+0x2e>
 800113a:	607b      	str	r3, [r7, #4]
 800113c:	f7ff ff2e 	bl	8000f9c <_ZN7console6Driver8instanceEv>
 8001140:	1ca2      	adds	r2, r4, #2
 8001142:	687b      	ldr	r3, [r7, #4]
 8001144:	b2d2      	uxtb	r2, r2
 8001146:	2103      	movs	r1, #3
 8001148:	f000 f928 	bl	800139c <_ZN7console6Driver10sendPacketEthPKh>
 800114c:	46ad      	mov	sp, r5
 800114e:	370c      	adds	r7, #12
 8001150:	46bd      	mov	sp, r7
 8001152:	bdf0      	pop	{r4, r5, r6, r7, pc}

08001154 <__tcf_0>:
 8001154:	4770      	bx	lr

08001156 <_ZN7console6DriverD1Ev>:
 8001156:	4770      	bx	lr

08001158 <_ZN7console6Driver13ReceiveHeaderEv>:
 8001158:	7d03      	ldrb	r3, [r0, #20]
 800115a:	2bfe      	cmp	r3, #254	; 0xfe
 800115c:	bf01      	itttt	eq
 800115e:	4b02      	ldreq	r3, [pc, #8]	; (8001168 <_ZN7console6Driver13ReceiveHeaderEv+0x10>)
 8001160:	6043      	streq	r3, [r0, #4]
 8001162:	2300      	moveq	r3, #0
 8001164:	6083      	streq	r3, [r0, #8]
 8001166:	4770      	bx	lr
 8001168:	0800116d 	.word	0x0800116d

0800116c <_ZN7console6Driver13ReceiveLengthEv>:
 800116c:	7d03      	ldrb	r3, [r0, #20]
 800116e:	f880 394f 	strb.w	r3, [r0, #2383]	; 0x94f
 8001172:	2bf9      	cmp	r3, #249	; 0xf9
 8001174:	bf97      	itett	ls
 8001176:	3b02      	subls	r3, #2
 8001178:	4b07      	ldrhi	r3, [pc, #28]	; (8001198 <_ZN7console6Driver13ReceiveLengthEv+0x2c>)
 800117a:	f880 3950 	strbls.w	r3, [r0, #2384]	; 0x950
 800117e:	4b07      	ldrls	r3, [pc, #28]	; (800119c <_ZN7console6Driver13ReceiveLengthEv+0x30>)
 8001180:	f04f 0200 	mov.w	r2, #0
 8001184:	bf98      	it	ls
 8001186:	2102      	movls	r1, #2
 8001188:	e9c0 3201 	strd	r3, r2, [r0, #4]
 800118c:	bf9c      	itt	ls
 800118e:	f880 1951 	strbls.w	r1, [r0, #2385]	; 0x951
 8001192:	f8a0 2952 	strhls.w	r2, [r0, #2386]	; 0x952
 8001196:	4770      	bx	lr
 8001198:	08001159 	.word	0x08001159
 800119c:	0800122d 	.word	0x0800122d

080011a0 <_ZN7console6Driver11ReceiveDataEv>:
 80011a0:	f890 3950 	ldrb.w	r3, [r0, #2384]	; 0x950
 80011a4:	7d01      	ldrb	r1, [r0, #20]
 80011a6:	f890 2951 	ldrb.w	r2, [r0, #2385]	; 0x951
 80011aa:	440b      	add	r3, r1
 80011ac:	f880 3950 	strb.w	r3, [r0, #2384]	; 0x950
 80011b0:	1c53      	adds	r3, r2, #1
 80011b2:	4402      	add	r2, r0
 80011b4:	b2db      	uxtb	r3, r3
 80011b6:	f880 3951 	strb.w	r3, [r0, #2385]	; 0x951
 80011ba:	f882 1855 	strb.w	r1, [r2, #2133]	; 0x855
 80011be:	f890 294f 	ldrb.w	r2, [r0, #2383]	; 0x94f
 80011c2:	429a      	cmp	r2, r3
 80011c4:	bf01      	itttt	eq
 80011c6:	4b02      	ldreq	r3, [pc, #8]	; (80011d0 <_ZN7console6Driver11ReceiveDataEv+0x30>)
 80011c8:	6043      	streq	r3, [r0, #4]
 80011ca:	2300      	moveq	r3, #0
 80011cc:	6083      	streq	r3, [r0, #8]
 80011ce:	4770      	bx	lr
 80011d0:	080011d5 	.word	0x080011d5

080011d4 <_ZN7console6Driver15ReceiveChecksumEv>:
 80011d4:	7d02      	ldrb	r2, [r0, #20]
 80011d6:	f890 3950 	ldrb.w	r3, [r0, #2384]	; 0x950
 80011da:	429a      	cmp	r2, r3
 80011dc:	bf0c      	ite	eq
 80011de:	4a03      	ldreq	r2, [pc, #12]	; (80011ec <_ZN7console6Driver15ReceiveChecksumEv+0x18>)
 80011e0:	4a03      	ldrne	r2, [pc, #12]	; (80011f0 <_ZN7console6Driver15ReceiveChecksumEv+0x1c>)
 80011e2:	2300      	movs	r3, #0
 80011e4:	e9c0 2301 	strd	r2, r3, [r0, #4]
 80011e8:	4770      	bx	lr
 80011ea:	bf00      	nop
 80011ec:	08001271 	.word	0x08001271
 80011f0:	08001159 	.word	0x08001159

080011f4 <_ZN7console6Driver4initEv>:
 80011f4:	b513      	push	{r0, r1, r4, lr}
 80011f6:	4604      	mov	r4, r0
 80011f8:	f000 f952 	bl	80014a0 <_ZN7console3HAL4initEv>
 80011fc:	4a06      	ldr	r2, [pc, #24]	; (8001218 <_ZN7console6Driver4initEv+0x24>)
 80011fe:	9200      	str	r2, [sp, #0]
 8001200:	2200      	movs	r2, #0
 8001202:	9201      	str	r2, [sp, #4]
 8001204:	6823      	ldr	r3, [r4, #0]
 8001206:	aa02      	add	r2, sp, #8
 8001208:	e912 0006 	ldmdb	r2, {r1, r2}
 800120c:	691b      	ldr	r3, [r3, #16]
 800120e:	4620      	mov	r0, r4
 8001210:	b002      	add	sp, #8
 8001212:	e8bd 4010 	ldmia.w	sp!, {r4, lr}
 8001216:	4718      	bx	r3
 8001218:	08001159 	.word	0x08001159

0800121c <_ZN7console6DriverD0Ev>:
 800121c:	b510      	push	{r4, lr}
 800121e:	f640 1154 	movw	r1, #2388	; 0x954
 8001222:	4604      	mov	r4, r0
 8001224:	f003 f864 	bl	80042f0 <_ZdlPvj>
 8001228:	4620      	mov	r0, r4
 800122a:	bd10      	pop	{r4, pc}

0800122c <_ZN7console6Driver11ReceiveTypeEv>:
 800122c:	7d03      	ldrb	r3, [r0, #20]
 800122e:	f890 2950 	ldrb.w	r2, [r0, #2384]	; 0x950
 8001232:	441a      	add	r2, r3
 8001234:	f880 2950 	strb.w	r2, [r0, #2384]	; 0x950
 8001238:	f8b0 2952 	ldrh.w	r2, [r0, #2386]	; 0x952
 800123c:	eb03 2302 	add.w	r3, r3, r2, lsl #8
 8001240:	f8a0 3952 	strh.w	r3, [r0, #2386]	; 0x952
 8001244:	f890 3951 	ldrb.w	r3, [r0, #2385]	; 0x951
 8001248:	3b01      	subs	r3, #1
 800124a:	b2db      	uxtb	r3, r3
 800124c:	f880 3951 	strb.w	r3, [r0, #2385]	; 0x951
 8001250:	b94b      	cbnz	r3, 8001266 <_ZN7console6Driver11ReceiveTypeEv+0x3a>
 8001252:	f890 294f 	ldrb.w	r2, [r0, #2383]	; 0x94f
 8001256:	b11a      	cbz	r2, 8001260 <_ZN7console6Driver11ReceiveTypeEv+0x34>
 8001258:	4a03      	ldr	r2, [pc, #12]	; (8001268 <_ZN7console6Driver11ReceiveTypeEv+0x3c>)
 800125a:	e9c0 2301 	strd	r2, r3, [r0, #4]
 800125e:	4770      	bx	lr
 8001260:	4b02      	ldr	r3, [pc, #8]	; (800126c <_ZN7console6Driver11ReceiveTypeEv+0x40>)
 8001262:	e9c0 3201 	strd	r3, r2, [r0, #4]
 8001266:	4770      	bx	lr
 8001268:	080011a1 	.word	0x080011a1
 800126c:	080011d5 	.word	0x080011d5

08001270 <_ZN7console6Driver13ReceiveFooterEv>:
 8001270:	b5f7      	push	{r0, r1, r2, r4, r5, r6, r7, lr}
 8001272:	7d03      	ldrb	r3, [r0, #20]
 8001274:	2bfd      	cmp	r3, #253	; 0xfd
 8001276:	4604      	mov	r4, r0
 8001278:	d12b      	bne.n	80012d2 <_ZN7console6Driver13ReceiveFooterEv+0x62>
 800127a:	4f19      	ldr	r7, [pc, #100]	; (80012e0 <_ZN7console6Driver13ReceiveFooterEv+0x70>)
 800127c:	783d      	ldrb	r5, [r7, #0]
 800127e:	f3bf 8f5b 	dmb	ish
 8001282:	f015 0501 	ands.w	r5, r5, #1
 8001286:	d11b      	bne.n	80012c0 <_ZN7console6Driver13ReceiveFooterEv+0x50>
 8001288:	4638      	mov	r0, r7
 800128a:	f003 f833 	bl	80042f4 <__cxa_guard_acquire>
 800128e:	b1b8      	cbz	r0, 80012c0 <_ZN7console6Driver13ReceiveFooterEv+0x50>
 8001290:	4e14      	ldr	r6, [pc, #80]	; (80012e4 <_ZN7console6Driver13ReceiveFooterEv+0x74>)
 8001292:	4b15      	ldr	r3, [pc, #84]	; (80012e8 <_ZN7console6Driver13ReceiveFooterEv+0x78>)
 8001294:	6033      	str	r3, [r6, #0]
 8001296:	4b15      	ldr	r3, [pc, #84]	; (80012ec <_ZN7console6Driver13ReceiveFooterEv+0x7c>)
 8001298:	e9cd 3500 	strd	r3, r5, [sp]
 800129c:	ab02      	add	r3, sp, #8
 800129e:	e913 000c 	ldmdb	r3, {r2, r3}
 80012a2:	4631      	mov	r1, r6
 80012a4:	f106 0008 	add.w	r0, r6, #8
 80012a8:	f000 ffe0 	bl	800226c <_ZN4core4TaskC1EPNS_9ComponentEMS1_FvvE>
 80012ac:	4638      	mov	r0, r7
 80012ae:	62b5      	str	r5, [r6, #40]	; 0x28
 80012b0:	f886 502c 	strb.w	r5, [r6, #44]	; 0x2c
 80012b4:	6535      	str	r5, [r6, #80]	; 0x50
 80012b6:	f003 f829 	bl	800430c <__cxa_guard_release>
 80012ba:	480d      	ldr	r0, [pc, #52]	; (80012f0 <_ZN7console6Driver13ReceiveFooterEv+0x80>)
 80012bc:	f004 f815 	bl	80052ea <atexit>
 80012c0:	f894 294f 	ldrb.w	r2, [r4, #2383]	; 0x94f
 80012c4:	f8b4 1952 	ldrh.w	r1, [r4, #2386]	; 0x952
 80012c8:	4806      	ldr	r0, [pc, #24]	; (80012e4 <_ZN7console6Driver13ReceiveFooterEv+0x74>)
 80012ca:	f604 0355 	addw	r3, r4, #2133	; 0x855
 80012ce:	f7ff ff05 	bl	80010dc <_ZN7console10Controller14processCommandEthPh>
 80012d2:	4b08      	ldr	r3, [pc, #32]	; (80012f4 <_ZN7console6Driver13ReceiveFooterEv+0x84>)
 80012d4:	6063      	str	r3, [r4, #4]
 80012d6:	2300      	movs	r3, #0
 80012d8:	60a3      	str	r3, [r4, #8]
 80012da:	b003      	add	sp, #12
 80012dc:	bdf0      	pop	{r4, r5, r6, r7, pc}
 80012de:	bf00      	nop
 80012e0:	200009f4 	.word	0x200009f4
 80012e4:	200009f8 	.word	0x200009f8
 80012e8:	08005dfc 	.word	0x08005dfc
 80012ec:	080015b9 	.word	0x080015b9
 80012f0:	08001381 	.word	0x08001381
 80012f4:	08001159 	.word	0x08001159

080012f8 <_ZN4core10EmptyEvent4postEv.isra.0>:
 80012f8:	b538      	push	{r3, r4, r5, lr}
 80012fa:	4d1e      	ldr	r5, [pc, #120]	; (8001374 <_ZN4core10EmptyEvent4postEv.isra.0+0x7c>)
 80012fc:	782b      	ldrb	r3, [r5, #0]
 80012fe:	f3bf 8f5b 	dmb	ish
 8001302:	07db      	lsls	r3, r3, #31
 8001304:	4604      	mov	r4, r0
 8001306:	d40c      	bmi.n	8001322 <_ZN4core10EmptyEvent4postEv.isra.0+0x2a>
 8001308:	4628      	mov	r0, r5
 800130a:	f002 fff3 	bl	80042f4 <__cxa_guard_acquire>
 800130e:	b140      	cbz	r0, 8001322 <_ZN4core10EmptyEvent4postEv.isra.0+0x2a>
 8001310:	4819      	ldr	r0, [pc, #100]	; (8001378 <_ZN4core10EmptyEvent4postEv.isra.0+0x80>)
 8001312:	f000 fe87 	bl	8002024 <_ZN4core6EngineC1Ev>
 8001316:	4628      	mov	r0, r5
 8001318:	f002 fff8 	bl	800430c <__cxa_guard_release>
 800131c:	4817      	ldr	r0, [pc, #92]	; (800137c <_ZN4core10EmptyEvent4postEv.isra.0+0x84>)
 800131e:	f003 ffe4 	bl	80052ea <atexit>
 8001322:	4b15      	ldr	r3, [pc, #84]	; (8001378 <_ZN4core10EmptyEvent4postEv.isra.0+0x80>)
 8001324:	f8b3 280c 	ldrh.w	r2, [r3, #2060]	; 0x80c
 8001328:	f8d3 181c 	ldr.w	r1, [r3, #2076]	; 0x81c
 800132c:	fa11 f282 	uxtah	r2, r1, r2
 8001330:	f8d3 1818 	ldr.w	r1, [r3, #2072]	; 0x818
 8001334:	1a52      	subs	r2, r2, r1
 8001336:	f8b3 180c 	ldrh.w	r1, [r3, #2060]	; 0x80c
 800133a:	b292      	uxth	r2, r2
 800133c:	b289      	uxth	r1, r1
 800133e:	428a      	cmp	r2, r1
 8001340:	bf82      	ittt	hi
 8001342:	f8b3 180c 	ldrhhi.w	r1, [r3, #2060]	; 0x80c
 8001346:	1a52      	subhi	r2, r2, r1
 8001348:	b292      	uxthhi	r2, r2
 800134a:	b192      	cbz	r2, 8001372 <_ZN4core10EmptyEvent4postEv.isra.0+0x7a>
 800134c:	7821      	ldrb	r1, [r4, #0]
 800134e:	b672      	cpsid	i
 8001350:	f8d3 2818 	ldr.w	r2, [r3, #2072]	; 0x818
 8001354:	7011      	strb	r1, [r2, #0]
 8001356:	f8d3 2818 	ldr.w	r2, [r3, #2072]	; 0x818
 800135a:	f8d3 1814 	ldr.w	r1, [r3, #2068]	; 0x814
 800135e:	3201      	adds	r2, #1
 8001360:	428a      	cmp	r2, r1
 8001362:	f8c3 2818 	str.w	r2, [r3, #2072]	; 0x818
 8001366:	bf04      	itt	eq
 8001368:	f8d3 2810 	ldreq.w	r2, [r3, #2064]	; 0x810
 800136c:	f8c3 2818 	streq.w	r2, [r3, #2072]	; 0x818
 8001370:	b662      	cpsie	i
 8001372:	bd38      	pop	{r3, r4, r5, pc}
 8001374:	20000a50 	.word	0x20000a50
 8001378:	20000a58 	.word	0x20000a58
 800137c:	08001155 	.word	0x08001155

08001380 <__tcf_1>:
 8001380:	4770      	bx	lr

08001382 <_ZN4core5Queue4pushEh>:
 8001382:	68c2      	ldr	r2, [r0, #12]
 8001384:	b510      	push	{r4, lr}
 8001386:	6884      	ldr	r4, [r0, #8]
 8001388:	1c53      	adds	r3, r2, #1
 800138a:	429c      	cmp	r4, r3
 800138c:	bf08      	it	eq
 800138e:	6843      	ldreq	r3, [r0, #4]
 8001390:	6904      	ldr	r4, [r0, #16]
 8001392:	429c      	cmp	r4, r3
 8001394:	bf1c      	itt	ne
 8001396:	7011      	strbne	r1, [r2, #0]
 8001398:	60c3      	strne	r3, [r0, #12]
 800139a:	bd10      	pop	{r4, pc}

0800139c <_ZN7console6Driver10sendPacketEthPKh>:
 800139c:	e92d 41f3 	stmdb	sp!, {r0, r1, r4, r5, r6, r7, r8, lr}
 80013a0:	4605      	mov	r5, r0
 80013a2:	461f      	mov	r7, r3
 80013a4:	f8b0 3840 	ldrh.w	r3, [r0, #2112]	; 0x840
 80013a8:	f8d0 0850 	ldr.w	r0, [r0, #2128]	; 0x850
 80013ac:	18c4      	adds	r4, r0, r3
 80013ae:	f8d5 084c 	ldr.w	r0, [r5, #2124]	; 0x84c
 80013b2:	1a24      	subs	r4, r4, r0
 80013b4:	b2a4      	uxth	r4, r4
 80013b6:	42a3      	cmp	r3, r4
 80013b8:	bf38      	it	cc
 80013ba:	1ae4      	subcc	r4, r4, r3
 80013bc:	4616      	mov	r6, r2
 80013be:	bf38      	it	cc
 80013c0:	b2a4      	uxthcc	r4, r4
 80013c2:	3204      	adds	r2, #4
 80013c4:	42a2      	cmp	r2, r4
 80013c6:	4688      	mov	r8, r1
 80013c8:	da3b      	bge.n	8001442 <_ZN7console6Driver10sendPacketEthPKh+0xa6>
 80013ca:	f505 6004 	add.w	r0, r5, #2112	; 0x840
 80013ce:	21fe      	movs	r1, #254	; 0xfe
 80013d0:	9001      	str	r0, [sp, #4]
 80013d2:	ea4f 2418 	mov.w	r4, r8, lsr #8
 80013d6:	f7ff ffd4 	bl	8001382 <_ZN4core5Queue4pushEh>
 80013da:	4631      	mov	r1, r6
 80013dc:	9801      	ldr	r0, [sp, #4]
 80013de:	f7ff ffd0 	bl	8001382 <_ZN4core5Queue4pushEh>
 80013e2:	4621      	mov	r1, r4
 80013e4:	9801      	ldr	r0, [sp, #4]
 80013e6:	f7ff ffcc 	bl	8001382 <_ZN4core5Queue4pushEh>
 80013ea:	fa5f f188 	uxtb.w	r1, r8
 80013ee:	1e8b      	subs	r3, r1, #2
 80013f0:	441c      	add	r4, r3
 80013f2:	9801      	ldr	r0, [sp, #4]
 80013f4:	b2e4      	uxtb	r4, r4
 80013f6:	f7ff ffc4 	bl	8001382 <_ZN4core5Queue4pushEh>
 80013fa:	4434      	add	r4, r6
 80013fc:	b2e4      	uxtb	r4, r4
 80013fe:	443e      	add	r6, r7
 8001400:	42b7      	cmp	r7, r6
 8001402:	9801      	ldr	r0, [sp, #4]
 8001404:	d008      	beq.n	8001418 <_ZN7console6Driver10sendPacketEthPKh+0x7c>
 8001406:	7839      	ldrb	r1, [r7, #0]
 8001408:	9001      	str	r0, [sp, #4]
 800140a:	f7ff ffba 	bl	8001382 <_ZN4core5Queue4pushEh>
 800140e:	f817 3b01 	ldrb.w	r3, [r7], #1
 8001412:	441c      	add	r4, r3
 8001414:	b2e4      	uxtb	r4, r4
 8001416:	e7f3      	b.n	8001400 <_ZN7console6Driver10sendPacketEthPKh+0x64>
 8001418:	4621      	mov	r1, r4
 800141a:	9001      	str	r0, [sp, #4]
 800141c:	f7ff ffb1 	bl	8001382 <_ZN4core5Queue4pushEh>
 8001420:	9801      	ldr	r0, [sp, #4]
 8001422:	21fd      	movs	r1, #253	; 0xfd
 8001424:	f7ff ffad 	bl	8001382 <_ZN4core5Queue4pushEh>
 8001428:	f895 0854 	ldrb.w	r0, [r5, #2132]	; 0x854
 800142c:	b930      	cbnz	r0, 800143c <_ZN7console6Driver10sendPacketEthPKh+0xa0>
 800142e:	f105 0030 	add.w	r0, r5, #48	; 0x30
 8001432:	f7ff ff61 	bl	80012f8 <_ZN4core10EmptyEvent4postEv.isra.0>
 8001436:	2001      	movs	r0, #1
 8001438:	f885 0854 	strb.w	r0, [r5, #2132]	; 0x854
 800143c:	b002      	add	sp, #8
 800143e:	e8bd 81f0 	ldmia.w	sp!, {r4, r5, r6, r7, r8, pc}
 8001442:	2000      	movs	r0, #0
 8001444:	e7fa      	b.n	800143c <_ZN7console6Driver10sendPacketEthPKh+0xa0>

08001446 <_ZN7console6Driver12sendHandler_Ev>:
 8001446:	f8d0 284c 	ldr.w	r2, [r0, #2124]	; 0x84c
 800144a:	f8d0 3850 	ldr.w	r3, [r0, #2128]	; 0x850
 800144e:	429a      	cmp	r2, r3
 8001450:	b510      	push	{r4, lr}
 8001452:	4604      	mov	r4, r0
 8001454:	d103      	bne.n	800145e <_ZN7console6Driver12sendHandler_Ev+0x18>
 8001456:	2300      	movs	r3, #0
 8001458:	f880 3854 	strb.w	r3, [r0, #2132]	; 0x854
 800145c:	bd10      	pop	{r4, pc}
 800145e:	f000 f849 	bl	80014f4 <_ZN7console3HAL7txReadyEv>
 8001462:	b198      	cbz	r0, 800148c <_ZN7console6Driver12sendHandler_Ev+0x46>
 8001464:	f8d4 3850 	ldr.w	r3, [r4, #2128]	; 0x850
 8001468:	f8d4 284c 	ldr.w	r2, [r4, #2124]	; 0x84c
 800146c:	4293      	cmp	r3, r2
 800146e:	d013      	beq.n	8001498 <_ZN7console6Driver12sendHandler_Ev+0x52>
 8001470:	f813 0b01 	ldrb.w	r0, [r3], #1
 8001474:	f8d4 2848 	ldr.w	r2, [r4, #2120]	; 0x848
 8001478:	f8c4 3850 	str.w	r3, [r4, #2128]	; 0x850
 800147c:	4293      	cmp	r3, r2
 800147e:	d103      	bne.n	8001488 <_ZN7console6Driver12sendHandler_Ev+0x42>
 8001480:	f8d4 3844 	ldr.w	r3, [r4, #2116]	; 0x844
 8001484:	f8c4 3850 	str.w	r3, [r4, #2128]	; 0x850
 8001488:	f000 f83c 	bl	8001504 <_ZN7console3HAL5writeEh>
 800148c:	f104 0030 	add.w	r0, r4, #48	; 0x30
 8001490:	e8bd 4010 	ldmia.w	sp!, {r4, lr}
 8001494:	f7ff bf30 	b.w	80012f8 <_ZN4core10EmptyEvent4postEv.isra.0>
 8001498:	2000      	movs	r0, #0
 800149a:	e7f5      	b.n	8001488 <_ZN7console6Driver12sendHandler_Ev+0x42>

0800149c <__tcf_0>:
 800149c:	4770      	bx	lr
	...

080014a0 <_ZN7console3HAL4initEv>:
 80014a0:	b508      	push	{r3, lr}
 80014a2:	f002 f9d9 	bl	8003858 <MX_USART1_UART_Init>
 80014a6:	4b11      	ldr	r3, [pc, #68]	; (80014ec <_ZN7console3HAL4initEv+0x4c>)
 80014a8:	e853 2f00 	ldrex	r2, [r3]
 80014ac:	f042 0220 	orr.w	r2, r2, #32
 80014b0:	e843 2100 	strex	r1, r2, [r3]
 80014b4:	2900      	cmp	r1, #0
 80014b6:	d1f7      	bne.n	80014a8 <_ZN7console3HAL4initEv+0x8>
 80014b8:	490d      	ldr	r1, [pc, #52]	; (80014f0 <_ZN7console3HAL4initEv+0x50>)
 80014ba:	e851 2f00 	ldrex	r2, [r1]
 80014be:	f042 0201 	orr.w	r2, r2, #1
 80014c2:	e841 2000 	strex	r0, r2, [r1]
 80014c6:	2800      	cmp	r0, #0
 80014c8:	d1f7      	bne.n	80014ba <_ZN7console3HAL4initEv+0x1a>
 80014ca:	e853 2f00 	ldrex	r2, [r3]
 80014ce:	f022 0240 	bic.w	r2, r2, #64	; 0x40
 80014d2:	e843 2100 	strex	r1, r2, [r3]
 80014d6:	2900      	cmp	r1, #0
 80014d8:	d1f7      	bne.n	80014ca <_ZN7console3HAL4initEv+0x2a>
 80014da:	e853 2f00 	ldrex	r2, [r3]
 80014de:	f022 0280 	bic.w	r2, r2, #128	; 0x80
 80014e2:	e843 2100 	strex	r1, r2, [r3]
 80014e6:	2900      	cmp	r1, #0
 80014e8:	d1f7      	bne.n	80014da <_ZN7console3HAL4initEv+0x3a>
 80014ea:	bd08      	pop	{r3, pc}
 80014ec:	4001100c 	.word	0x4001100c
 80014f0:	40011014 	.word	0x40011014

080014f4 <_ZN7console3HAL7txReadyEv>:
 80014f4:	4b02      	ldr	r3, [pc, #8]	; (8001500 <_ZN7console3HAL7txReadyEv+0xc>)
 80014f6:	6818      	ldr	r0, [r3, #0]
 80014f8:	f3c0 10c0 	ubfx	r0, r0, #7, #1
 80014fc:	4770      	bx	lr
 80014fe:	bf00      	nop
 8001500:	40011000 	.word	0x40011000

08001504 <_ZN7console3HAL5writeEh>:
 8001504:	4b01      	ldr	r3, [pc, #4]	; (800150c <_ZN7console3HAL5writeEh+0x8>)
 8001506:	6058      	str	r0, [r3, #4]
 8001508:	4770      	bx	lr
 800150a:	bf00      	nop
 800150c:	40011000 	.word	0x40011000

08001510 <USART1_IRQHandler>:
 8001510:	4b23      	ldr	r3, [pc, #140]	; (80015a0 <USART1_IRQHandler+0x90>)
 8001512:	b537      	push	{r0, r1, r2, r4, r5, lr}
 8001514:	681a      	ldr	r2, [r3, #0]
 8001516:	f012 0f20 	tst.w	r2, #32
 800151a:	461a      	mov	r2, r3
 800151c:	d026      	beq.n	800156c <USART1_IRQHandler+0x5c>
 800151e:	68d9      	ldr	r1, [r3, #12]
 8001520:	068c      	lsls	r4, r1, #26
 8001522:	d523      	bpl.n	800156c <USART1_IRQHandler+0x5c>
 8001524:	685d      	ldr	r5, [r3, #4]
 8001526:	f7ff fd39 	bl	8000f9c <_ZN7console6Driver8instanceEv>
 800152a:	f88d 5007 	strb.w	r5, [sp, #7]
 800152e:	4d1d      	ldr	r5, [pc, #116]	; (80015a4 <USART1_IRQHandler+0x94>)
 8001530:	782b      	ldrb	r3, [r5, #0]
 8001532:	f3bf 8f5b 	dmb	ish
 8001536:	4604      	mov	r4, r0
 8001538:	07d8      	lsls	r0, r3, #31
 800153a:	d40c      	bmi.n	8001556 <USART1_IRQHandler+0x46>
 800153c:	4628      	mov	r0, r5
 800153e:	f002 fed9 	bl	80042f4 <__cxa_guard_acquire>
 8001542:	b140      	cbz	r0, 8001556 <USART1_IRQHandler+0x46>
 8001544:	4818      	ldr	r0, [pc, #96]	; (80015a8 <USART1_IRQHandler+0x98>)
 8001546:	f000 fd6d 	bl	8002024 <_ZN4core6EngineC1Ev>
 800154a:	4628      	mov	r0, r5
 800154c:	f002 fede 	bl	800430c <__cxa_guard_release>
 8001550:	4816      	ldr	r0, [pc, #88]	; (80015ac <USART1_IRQHandler+0x9c>)
 8001552:	f003 feca 	bl	80052ea <atexit>
 8001556:	4814      	ldr	r0, [pc, #80]	; (80015a8 <USART1_IRQHandler+0x98>)
 8001558:	7f21      	ldrb	r1, [r4, #28]
 800155a:	f850 3f08 	ldr.w	r3, [r0, #8]!
 800155e:	f10d 0207 	add.w	r2, sp, #7
 8001562:	681d      	ldr	r5, [r3, #0]
 8001564:	2301      	movs	r3, #1
 8001566:	47a8      	blx	r5
 8001568:	b003      	add	sp, #12
 800156a:	bd30      	pop	{r4, r5, pc}
 800156c:	6813      	ldr	r3, [r2, #0]
 800156e:	0659      	lsls	r1, r3, #25
 8001570:	d509      	bpl.n	8001586 <USART1_IRQHandler+0x76>
 8001572:	4a0f      	ldr	r2, [pc, #60]	; (80015b0 <USART1_IRQHandler+0xa0>)
 8001574:	e852 3f00 	ldrex	r3, [r2]
 8001578:	f023 0340 	bic.w	r3, r3, #64	; 0x40
 800157c:	e842 3100 	strex	r1, r3, [r2]
 8001580:	2900      	cmp	r1, #0
 8001582:	d1f7      	bne.n	8001574 <USART1_IRQHandler+0x64>
 8001584:	e7f0      	b.n	8001568 <USART1_IRQHandler+0x58>
 8001586:	6813      	ldr	r3, [r2, #0]
 8001588:	061b      	lsls	r3, r3, #24
 800158a:	d5ed      	bpl.n	8001568 <USART1_IRQHandler+0x58>
 800158c:	4a08      	ldr	r2, [pc, #32]	; (80015b0 <USART1_IRQHandler+0xa0>)
 800158e:	e852 3f00 	ldrex	r3, [r2]
 8001592:	f023 0380 	bic.w	r3, r3, #128	; 0x80
 8001596:	e842 3100 	strex	r1, r3, [r2]
 800159a:	2900      	cmp	r1, #0
 800159c:	d1f7      	bne.n	800158e <USART1_IRQHandler+0x7e>
 800159e:	e7e3      	b.n	8001568 <USART1_IRQHandler+0x58>
 80015a0:	40011000 	.word	0x40011000
 80015a4:	20000a50 	.word	0x20000a50
 80015a8:	20000a58 	.word	0x20000a58
 80015ac:	0800149d 	.word	0x0800149d
 80015b0:	4001100c 	.word	0x4001100c

080015b4 <__tcf_3>:
 80015b4:	4770      	bx	lr
	...

080015b8 <_ZN7console10Controller12plotHandler_Ev>:
 80015b8:	e92d 4ff0 	stmdb	sp!, {r4, r5, r6, r7, r8, r9, sl, fp, lr}
 80015bc:	f890 e02c 	ldrb.w	lr, [r0, #44]	; 0x2c
 80015c0:	b08d      	sub	sp, #52	; 0x34
 80015c2:	f1be 0f00 	cmp.w	lr, #0
 80015c6:	d070      	beq.n	80016aa <_ZN7console10Controller12plotHandler_Ev+0xf2>
 80015c8:	2500      	movs	r5, #0
 80015ca:	f100 0230 	add.w	r2, r0, #48	; 0x30
 80015ce:	2402      	movs	r4, #2
 80015d0:	462b      	mov	r3, r5
 80015d2:	9201      	str	r2, [sp, #4]
 80015d4:	f04f 0a01 	mov.w	sl, #1
 80015d8:	fa4e f205 	asr.w	r2, lr, r5
 80015dc:	07d2      	lsls	r2, r2, #31
 80015de:	d516      	bpl.n	800160e <_ZN7console10Controller12plotHandler_Ev+0x56>
 80015e0:	9a01      	ldr	r2, [sp, #4]
 80015e2:	f852 2025 	ldr.w	r2, [r2, r5, lsl #2]
 80015e6:	f102 067f 	add.w	r6, r2, #127	; 0x7f
 80015ea:	1c60      	adds	r0, r4, #1
 80015ec:	2efe      	cmp	r6, #254	; 0xfe
 80015ee:	ae0c      	add	r6, sp, #48	; 0x30
 80015f0:	ea4f 0145 	mov.w	r1, r5, lsl #1
 80015f4:	b21b      	sxth	r3, r3
 80015f6:	b2d7      	uxtb	r7, r2
 80015f8:	b2c0      	uxtb	r0, r0
 80015fa:	eb06 0c04 	add.w	ip, r6, r4
 80015fe:	d857      	bhi.n	80016b0 <_ZN7console10Controller12plotHandler_Ev+0xf8>
 8001600:	fa0a f101 	lsl.w	r1, sl, r1
 8001604:	430b      	orrs	r3, r1
 8001606:	b29b      	uxth	r3, r3
 8001608:	f80c 7c24 	strb.w	r7, [ip, #-36]
 800160c:	4604      	mov	r4, r0
 800160e:	3501      	adds	r5, #1
 8001610:	2d08      	cmp	r5, #8
 8001612:	d1e1      	bne.n	80015d8 <_ZN7console10Controller12plotHandler_Ev+0x20>
 8001614:	4f40      	ldr	r7, [pc, #256]	; (8001718 <_ZN7console10Controller12plotHandler_Ev+0x160>)
 8001616:	ba5b      	rev16	r3, r3
 8001618:	f8ad 300c 	strh.w	r3, [sp, #12]
 800161c:	783e      	ldrb	r6, [r7, #0]
 800161e:	f3bf 8f5b 	dmb	ish
 8001622:	f016 0601 	ands.w	r6, r6, #1
 8001626:	d13a      	bne.n	800169e <_ZN7console10Controller12plotHandler_Ev+0xe6>
 8001628:	4638      	mov	r0, r7
 800162a:	f002 fe63 	bl	80042f4 <__cxa_guard_acquire>
 800162e:	2800      	cmp	r0, #0
 8001630:	d035      	beq.n	800169e <_ZN7console10Controller12plotHandler_Ev+0xe6>
 8001632:	4d3a      	ldr	r5, [pc, #232]	; (800171c <_ZN7console10Controller12plotHandler_Ev+0x164>)
 8001634:	4b3a      	ldr	r3, [pc, #232]	; (8001720 <_ZN7console10Controller12plotHandler_Ev+0x168>)
 8001636:	4628      	mov	r0, r5
 8001638:	e9c5 3603 	strd	r3, r6, [r5, #12]
 800163c:	4b39      	ldr	r3, [pc, #228]	; (8001724 <_ZN7console10Controller12plotHandler_Ev+0x16c>)
 800163e:	f840 3b18 	str.w	r3, [r0], #24
 8001642:	e9c5 6601 	strd	r6, r6, [r5, #4]
 8001646:	f000 fd25 	bl	8002094 <_ZN4core5EventC1Ev>
 800164a:	4b37      	ldr	r3, [pc, #220]	; (8001728 <_ZN7console10Controller12plotHandler_Ev+0x170>)
 800164c:	61ab      	str	r3, [r5, #24]
 800164e:	4b37      	ldr	r3, [pc, #220]	; (800172c <_ZN7console10Controller12plotHandler_Ev+0x174>)
 8001650:	622d      	str	r5, [r5, #32]
 8001652:	4628      	mov	r0, r5
 8001654:	e9c5 3609 	strd	r3, r6, [r5, #36]	; 0x24
 8001658:	4b35      	ldr	r3, [pc, #212]	; (8001730 <_ZN7console10Controller12plotHandler_Ev+0x178>)
 800165a:	f840 3b2c 	str.w	r3, [r0], #44
 800165e:	f000 fd19 	bl	8002094 <_ZN4core5EventC1Ev>
 8001662:	4b34      	ldr	r3, [pc, #208]	; (8001734 <_ZN7console10Controller12plotHandler_Ev+0x17c>)
 8001664:	62eb      	str	r3, [r5, #44]	; 0x2c
 8001666:	4b34      	ldr	r3, [pc, #208]	; (8001738 <_ZN7console10Controller12plotHandler_Ev+0x180>)
 8001668:	636d      	str	r5, [r5, #52]	; 0x34
 800166a:	f44f 6200 	mov.w	r2, #2048	; 0x800
 800166e:	e9c5 360e 	strd	r3, r6, [r5, #56]	; 0x38
 8001672:	f8a5 2840 	strh.w	r2, [r5, #2112]	; 0x840
 8001676:	f105 0340 	add.w	r3, r5, #64	; 0x40
 800167a:	f505 6204 	add.w	r2, r5, #2112	; 0x840
 800167e:	4638      	mov	r0, r7
 8001680:	f8c5 3844 	str.w	r3, [r5, #2116]	; 0x844
 8001684:	f8c5 2848 	str.w	r2, [r5, #2120]	; 0x848
 8001688:	f8c5 384c 	str.w	r3, [r5, #2124]	; 0x84c
 800168c:	f8c5 3850 	str.w	r3, [r5, #2128]	; 0x850
 8001690:	f885 6854 	strb.w	r6, [r5, #2132]	; 0x854
 8001694:	f002 fe3a 	bl	800430c <__cxa_guard_release>
 8001698:	4828      	ldr	r0, [pc, #160]	; (800173c <_ZN7console10Controller12plotHandler_Ev+0x184>)
 800169a:	f003 fe26 	bl	80052ea <atexit>
 800169e:	481f      	ldr	r0, [pc, #124]	; (800171c <_ZN7console10Controller12plotHandler_Ev+0x164>)
 80016a0:	ab03      	add	r3, sp, #12
 80016a2:	4622      	mov	r2, r4
 80016a4:	2104      	movs	r1, #4
 80016a6:	f7ff fe79 	bl	800139c <_ZN7console6Driver10sendPacketEthPKh>
 80016aa:	b00d      	add	sp, #52	; 0x34
 80016ac:	e8bd 8ff0 	ldmia.w	sp!, {r4, r5, r6, r7, r8, r9, sl, fp, pc}
 80016b0:	f502 4bff 	add.w	fp, r2, #32640	; 0x7f80
 80016b4:	f64f 79fe 	movw	r9, #65534	; 0xfffe
 80016b8:	f10b 0b7f 	add.w	fp, fp, #127	; 0x7f
 80016bc:	1ca6      	adds	r6, r4, #2
 80016be:	45cb      	cmp	fp, r9
 80016c0:	f10d 0930 	add.w	r9, sp, #48	; 0x30
 80016c4:	f3c2 2807 	ubfx	r8, r2, #8, #8
 80016c8:	b2f6      	uxtb	r6, r6
 80016ca:	4448      	add	r0, r9
 80016cc:	d80a      	bhi.n	80016e4 <_ZN7console10Controller12plotHandler_Ev+0x12c>
 80016ce:	2202      	movs	r2, #2
 80016d0:	fa02 f101 	lsl.w	r1, r2, r1
 80016d4:	430b      	orrs	r3, r1
 80016d6:	f80c 8c24 	strb.w	r8, [ip, #-36]
 80016da:	b29b      	uxth	r3, r3
 80016dc:	f800 7c24 	strb.w	r7, [r0, #-36]
 80016e0:	4634      	mov	r4, r6
 80016e2:	e794      	b.n	800160e <_ZN7console10Controller12plotHandler_Ev+0x56>
 80016e4:	f04f 0903 	mov.w	r9, #3
 80016e8:	fa09 f101 	lsl.w	r1, r9, r1
 80016ec:	430b      	orrs	r3, r1
 80016ee:	0e11      	lsrs	r1, r2, #24
 80016f0:	1412      	asrs	r2, r2, #16
 80016f2:	f80c 1c24 	strb.w	r1, [ip, #-36]
 80016f6:	f800 2c24 	strb.w	r2, [r0, #-36]
 80016fa:	eb04 0109 	add.w	r1, r4, r9
 80016fe:	aa0c      	add	r2, sp, #48	; 0x30
 8001700:	4416      	add	r6, r2
 8001702:	fa52 f181 	uxtab	r1, r2, r1
 8001706:	3404      	adds	r4, #4
 8001708:	f806 8c24 	strb.w	r8, [r6, #-36]
 800170c:	b29b      	uxth	r3, r3
 800170e:	b2e4      	uxtb	r4, r4
 8001710:	f801 7c24 	strb.w	r7, [r1, #-36]
 8001714:	e77b      	b.n	800160e <_ZN7console10Controller12plotHandler_Ev+0x56>
 8001716:	bf00      	nop
 8001718:	2000009c 	.word	0x2000009c
 800171c:	200000a0 	.word	0x200000a0
 8001720:	08000ec5 	.word	0x08000ec5
 8001724:	08005de0 	.word	0x08005de0
 8001728:	08005dcc 	.word	0x08005dcc
 800172c:	08000ed9 	.word	0x08000ed9
 8001730:	08005e10 	.word	0x08005e10
 8001734:	08005db8 	.word	0x08005db8
 8001738:	08001447 	.word	0x08001447
 800173c:	080015b5 	.word	0x080015b5

08001740 <__tcf_0>:
 8001740:	4770      	bx	lr

08001742 <_ZN4core13SimpleMachine7executeERh>:
 8001742:	b510      	push	{r4, lr}
 8001744:	2300      	movs	r3, #0
 8001746:	e9c0 3301 	strd	r3, r3, [r0, #4]
 800174a:	6902      	ldr	r2, [r0, #16]
 800174c:	780b      	ldrb	r3, [r1, #0]
 800174e:	7503      	strb	r3, [r0, #20]
 8001750:	4604      	mov	r4, r0
 8001752:	1051      	asrs	r1, r2, #1
 8001754:	eb00 0062 	add.w	r0, r0, r2, asr #1
 8001758:	07d2      	lsls	r2, r2, #31
 800175a:	bf48      	it	mi
 800175c:	5862      	ldrmi	r2, [r4, r1]
 800175e:	68e3      	ldr	r3, [r4, #12]
 8001760:	bf48      	it	mi
 8001762:	58d3      	ldrmi	r3, [r2, r3]
 8001764:	4798      	blx	r3
 8001766:	6861      	ldr	r1, [r4, #4]
 8001768:	b911      	cbnz	r1, 8001770 <_ZN4core13SimpleMachine7executeERh+0x2e>
 800176a:	68a3      	ldr	r3, [r4, #8]
 800176c:	07d8      	lsls	r0, r3, #31
 800176e:	d52a      	bpl.n	80017c6 <_ZN4core13SimpleMachine7executeERh+0x84>
 8001770:	e9d4 3203 	ldrd	r3, r2, [r4, #12]
 8001774:	4299      	cmp	r1, r3
 8001776:	d106      	bne.n	8001786 <_ZN4core13SimpleMachine7executeERh+0x44>
 8001778:	68a1      	ldr	r1, [r4, #8]
 800177a:	4291      	cmp	r1, r2
 800177c:	d023      	beq.n	80017c6 <_ZN4core13SimpleMachine7executeERh+0x84>
 800177e:	b913      	cbnz	r3, 8001786 <_ZN4core13SimpleMachine7executeERh+0x44>
 8001780:	4311      	orrs	r1, r2
 8001782:	07c9      	lsls	r1, r1, #31
 8001784:	d51f      	bpl.n	80017c6 <_ZN4core13SimpleMachine7executeERh+0x84>
 8001786:	21ff      	movs	r1, #255	; 0xff
 8001788:	7521      	strb	r1, [r4, #20]
 800178a:	1051      	asrs	r1, r2, #1
 800178c:	eb04 0062 	add.w	r0, r4, r2, asr #1
 8001790:	07d2      	lsls	r2, r2, #31
 8001792:	bf44      	itt	mi
 8001794:	5862      	ldrmi	r2, [r4, r1]
 8001796:	58d3      	ldrmi	r3, [r2, r3]
 8001798:	4798      	blx	r3
 800179a:	e9d4 0101 	ldrd	r0, r1, [r4, #4]
 800179e:	f104 030c 	add.w	r3, r4, #12
 80017a2:	e883 0003 	stmia.w	r3, {r0, r1}
 80017a6:	23fe      	movs	r3, #254	; 0xfe
 80017a8:	7523      	strb	r3, [r4, #20]
 80017aa:	6923      	ldr	r3, [r4, #16]
 80017ac:	105a      	asrs	r2, r3, #1
 80017ae:	f013 0f01 	tst.w	r3, #1
 80017b2:	bf18      	it	ne
 80017b4:	58a2      	ldrne	r2, [r4, r2]
 80017b6:	eb04 0063 	add.w	r0, r4, r3, asr #1
 80017ba:	68e3      	ldr	r3, [r4, #12]
 80017bc:	e8bd 4010 	ldmia.w	sp!, {r4, lr}
 80017c0:	bf18      	it	ne
 80017c2:	58d3      	ldrne	r3, [r2, r3]
 80017c4:	4718      	bx	r3
 80017c6:	bd10      	pop	{r4, pc}

080017c8 <_ZN4core13SimpleMachine6check_EhMNS_7MachineEFvvE>:
 80017c8:	b513      	push	{r0, r1, r4, lr}
 80017ca:	ac02      	add	r4, sp, #8
 80017cc:	e904 000c 	stmdb	r4, {r2, r3}
 80017d0:	7d04      	ldrb	r4, [r0, #20]
 80017d2:	428c      	cmp	r4, r1
 80017d4:	bf05      	ittet	eq
 80017d6:	3004      	addeq	r0, #4
 80017d8:	e9c0 2300 	strdeq	r2, r3, [r0]
 80017dc:	2000      	movne	r0, #0
 80017de:	2001      	moveq	r0, #1
 80017e0:	b002      	add	sp, #8
 80017e2:	bd10      	pop	{r4, pc}

080017e4 <_ZN4core13SimpleMachine6start_EMNS_7MachineEFvvE>:
 80017e4:	b417      	push	{r0, r1, r2, r4}
 80017e6:	4603      	mov	r3, r0
 80017e8:	4668      	mov	r0, sp
 80017ea:	e880 0006 	stmia.w	r0, {r1, r2}
 80017ee:	c803      	ldmia	r0, {r0, r1}
 80017f0:	f103 040c 	add.w	r4, r3, #12
 80017f4:	e884 0005 	stmia.w	r4, {r0, r2}
 80017f8:	22fe      	movs	r2, #254	; 0xfe
 80017fa:	751a      	strb	r2, [r3, #20]
 80017fc:	691a      	ldr	r2, [r3, #16]
 80017fe:	1051      	asrs	r1, r2, #1
 8001800:	f012 0f01 	tst.w	r2, #1
 8001804:	eb03 0062 	add.w	r0, r3, r2, asr #1
 8001808:	68da      	ldr	r2, [r3, #12]
 800180a:	bf1c      	itt	ne
 800180c:	585b      	ldrne	r3, [r3, r1]
 800180e:	589a      	ldrne	r2, [r3, r2]
 8001810:	b003      	add	sp, #12
 8001812:	f85d 4b04 	ldr.w	r4, [sp], #4
 8001816:	4710      	bx	r2

08001818 <_ZN4core13SimpleMachineD1Ev>:
 8001818:	4770      	bx	lr

0800181a <_ZN6device10ControllerD1Ev>:
 800181a:	4770      	bx	lr

0800181c <_ZN4core6Strand9pushFixedEhPhh>:
 800181c:	4770      	bx	lr

0800181e <_ZThn4_N4core6Strand9pushFixedEhPhh>:
 800181e:	4770      	bx	lr

08001820 <_ZN4core6Strand10pushBufferEhPhh>:
 8001820:	4770      	bx	lr

08001822 <_ZThn4_N4core6Strand10pushBufferEhPhh>:
 8001822:	4770      	bx	lr

08001824 <_ZN4core6Strand9popBufferEPhRh>:
 8001824:	4770      	bx	lr

08001826 <_ZThn4_N4core6Strand9popBufferEPhRh>:
 8001826:	4770      	bx	lr

08001828 <_ZN4core10FixedEventIN5esp329TcpClient11data2ServerEED1Ev>:
 8001828:	4770      	bx	lr

0800182a <_ZN4core10FixedEventIN5esp326Driver13messageServerEED1Ev>:
 800182a:	4770      	bx	lr

0800182c <_ZN4core6StrandD1Ev>:
 800182c:	4770      	bx	lr

0800182e <_ZN4core10FixedEventIN5esp329TcpClient11data2ServerEE7executeEPNS_18AbstractEventQueueE>:
 800182e:	b513      	push	{r0, r1, r4, lr}
 8001830:	680b      	ldr	r3, [r1, #0]
 8001832:	4604      	mov	r4, r0
 8001834:	685b      	ldr	r3, [r3, #4]
 8001836:	4608      	mov	r0, r1
 8001838:	2208      	movs	r2, #8
 800183a:	4669      	mov	r1, sp
 800183c:	4798      	blx	r3
 800183e:	6923      	ldr	r3, [r4, #16]
 8001840:	68a2      	ldr	r2, [r4, #8]
 8001842:	1059      	asrs	r1, r3, #1
 8001844:	f013 0f01 	tst.w	r3, #1
 8001848:	eb02 0063 	add.w	r0, r2, r3, asr #1
 800184c:	bf18      	it	ne
 800184e:	5852      	ldrne	r2, [r2, r1]
 8001850:	68e3      	ldr	r3, [r4, #12]
 8001852:	4669      	mov	r1, sp
 8001854:	bf18      	it	ne
 8001856:	58d3      	ldrne	r3, [r2, r3]
 8001858:	4798      	blx	r3
 800185a:	b002      	add	sp, #8
 800185c:	bd10      	pop	{r4, pc}

0800185e <_ZN4core10FixedEventIN5esp326Driver13messageServerEE7executeEPNS_18AbstractEventQueueE>:
 800185e:	b513      	push	{r0, r1, r4, lr}
 8001860:	2300      	movs	r3, #0
 8001862:	f8ad 3000 	strh.w	r3, [sp]
 8001866:	9301      	str	r3, [sp, #4]
 8001868:	680b      	ldr	r3, [r1, #0]
 800186a:	4604      	mov	r4, r0
 800186c:	685b      	ldr	r3, [r3, #4]
 800186e:	4608      	mov	r0, r1
 8001870:	2208      	movs	r2, #8
 8001872:	4669      	mov	r1, sp
 8001874:	4798      	blx	r3
 8001876:	6923      	ldr	r3, [r4, #16]
 8001878:	68a2      	ldr	r2, [r4, #8]
 800187a:	1059      	asrs	r1, r3, #1
 800187c:	f013 0f01 	tst.w	r3, #1
 8001880:	eb02 0063 	add.w	r0, r2, r3, asr #1
 8001884:	bf18      	it	ne
 8001886:	5852      	ldrne	r2, [r2, r1]
 8001888:	68e3      	ldr	r3, [r4, #12]
 800188a:	4669      	mov	r1, sp
 800188c:	bf18      	it	ne
 800188e:	58d3      	ldrne	r3, [r2, r3]
 8001890:	4798      	blx	r3
 8001892:	b002      	add	sp, #8
 8001894:	bd10      	pop	{r4, pc}

08001896 <_ZN4core10FixedEventIN5esp329TcpClient11data2ServerEED0Ev>:
 8001896:	b510      	push	{r4, lr}
 8001898:	2114      	movs	r1, #20
 800189a:	4604      	mov	r4, r0
 800189c:	f002 fd28 	bl	80042f0 <_ZdlPvj>
 80018a0:	4620      	mov	r0, r4
 80018a2:	bd10      	pop	{r4, pc}

080018a4 <_ZN4core10FixedEventIN5esp326Driver13messageServerEED0Ev>:
 80018a4:	b510      	push	{r4, lr}
 80018a6:	2114      	movs	r1, #20
 80018a8:	4604      	mov	r4, r0
 80018aa:	f002 fd21 	bl	80042f0 <_ZdlPvj>
 80018ae:	4620      	mov	r0, r4
 80018b0:	bd10      	pop	{r4, pc}

080018b2 <_ZN4core6StrandD0Ev>:
 80018b2:	b510      	push	{r4, lr}
 80018b4:	2150      	movs	r1, #80	; 0x50
 80018b6:	4604      	mov	r4, r0
 80018b8:	f002 fd1a 	bl	80042f0 <_ZdlPvj>
 80018bc:	4620      	mov	r0, r4
 80018be:	bd10      	pop	{r4, pc}

080018c0 <_ZN4core13SimpleMachineD0Ev>:
 80018c0:	b510      	push	{r4, lr}
 80018c2:	212c      	movs	r1, #44	; 0x2c
 80018c4:	4604      	mov	r4, r0
 80018c6:	f002 fd13 	bl	80042f0 <_ZdlPvj>
 80018ca:	4620      	mov	r0, r4
 80018cc:	bd10      	pop	{r4, pc}

080018ce <_ZN6device10ControllerD0Ev>:
 80018ce:	b510      	push	{r4, lr}
 80018d0:	2158      	movs	r1, #88	; 0x58
 80018d2:	4604      	mov	r4, r0
 80018d4:	f002 fd0c 	bl	80042f0 <_ZdlPvj>
 80018d8:	4620      	mov	r0, r4
 80018da:	bd10      	pop	{r4, pc}

080018dc <__tcf_5>:
 80018dc:	4770      	bx	lr

080018de <__tcf_2>:
 80018de:	4770      	bx	lr

080018e0 <_ZN4core5Queue3popEv>:
 80018e0:	e9d0 2303 	ldrd	r2, r3, [r0, #12]
 80018e4:	4293      	cmp	r3, r2
 80018e6:	d009      	beq.n	80018fc <_ZN4core5Queue3popEv+0x1c>
 80018e8:	f813 2b01 	ldrb.w	r2, [r3], #1
 80018ec:	6881      	ldr	r1, [r0, #8]
 80018ee:	6103      	str	r3, [r0, #16]
 80018f0:	428b      	cmp	r3, r1
 80018f2:	d101      	bne.n	80018f8 <_ZN4core5Queue3popEv+0x18>
 80018f4:	6843      	ldr	r3, [r0, #4]
 80018f6:	6103      	str	r3, [r0, #16]
 80018f8:	4610      	mov	r0, r2
 80018fa:	4770      	bx	lr
 80018fc:	2200      	movs	r2, #0
 80018fe:	e7fb      	b.n	80018f8 <_ZN4core5Queue3popEv+0x18>

08001900 <_ZN4core6Strand8popFixedEPhh>:
 8001900:	b5f8      	push	{r3, r4, r5, r6, r7, lr}
 8001902:	4606      	mov	r6, r0
 8001904:	460d      	mov	r5, r1
 8001906:	4617      	mov	r7, r2
 8001908:	2400      	movs	r4, #0
 800190a:	42a7      	cmp	r7, r4
 800190c:	dd05      	ble.n	800191a <_ZN4core6Strand8popFixedEPhh+0x1a>
 800190e:	68b0      	ldr	r0, [r6, #8]
 8001910:	f7ff ffe6 	bl	80018e0 <_ZN4core5Queue3popEv>
 8001914:	5528      	strb	r0, [r5, r4]
 8001916:	3401      	adds	r4, #1
 8001918:	e7f7      	b.n	800190a <_ZN4core6Strand8popFixedEPhh+0xa>
 800191a:	bdf8      	pop	{r3, r4, r5, r6, r7, pc}

0800191c <_ZThn4_N4core6Strand8popFixedEPhh>:
 800191c:	f1a0 0004 	sub.w	r0, r0, #4
 8001920:	e7ee      	b.n	8001900 <_ZN4core6Strand8popFixedEPhh>

08001922 <_ZN4core6Strand8execute_Ev>:
 8001922:	b570      	push	{r4, r5, r6, lr}
 8001924:	4604      	mov	r4, r0
 8001926:	6880      	ldr	r0, [r0, #8]
 8001928:	f7ff ffda 	bl	80018e0 <_ZN4core5Queue3popEv>
 800192c:	2803      	cmp	r0, #3
 800192e:	d119      	bne.n	8001964 <_ZN4core6Strand8execute_Ev+0x42>
 8001930:	68a0      	ldr	r0, [r4, #8]
 8001932:	f7ff ffd5 	bl	80018e0 <_ZN4core5Queue3popEv>
 8001936:	0205      	lsls	r5, r0, #8
 8001938:	68a0      	ldr	r0, [r4, #8]
 800193a:	f7ff ffd1 	bl	80018e0 <_ZN4core5Queue3popEv>
 800193e:	4428      	add	r0, r5
 8001940:	0205      	lsls	r5, r0, #8
 8001942:	68a0      	ldr	r0, [r4, #8]
 8001944:	f7ff ffcc 	bl	80018e0 <_ZN4core5Queue3popEv>
 8001948:	4428      	add	r0, r5
 800194a:	0205      	lsls	r5, r0, #8
 800194c:	68a0      	ldr	r0, [r4, #8]
 800194e:	f7ff ffc7 	bl	80018e0 <_ZN4core5Queue3popEv>
 8001952:	2201      	movs	r2, #1
 8001954:	1941      	adds	r1, r0, r5
 8001956:	f104 0030 	add.w	r0, r4, #48	; 0x30
 800195a:	f000 fc9c 	bl	8002296 <_ZN4core4Task5startEml>
 800195e:	2300      	movs	r3, #0
 8001960:	6123      	str	r3, [r4, #16]
 8001962:	bd70      	pop	{r4, r5, r6, pc}
 8001964:	2801      	cmp	r0, #1
 8001966:	d101      	bne.n	800196c <_ZN4core6Strand8execute_Ev+0x4a>
 8001968:	2300      	movs	r3, #0
 800196a:	e00d      	b.n	8001988 <_ZN4core6Strand8execute_Ev+0x66>
 800196c:	2802      	cmp	r0, #2
 800196e:	d1f8      	bne.n	8001962 <_ZN4core6Strand8execute_Ev+0x40>
 8001970:	68a0      	ldr	r0, [r4, #8]
 8001972:	f7ff ffb5 	bl	80018e0 <_ZN4core5Queue3popEv>
 8001976:	6aa3      	ldr	r3, [r4, #40]	; 0x28
 8001978:	f893 2a18 	ldrb.w	r2, [r3, #2584]	; 0xa18
 800197c:	4282      	cmp	r2, r0
 800197e:	d9f3      	bls.n	8001968 <_ZN4core6Strand8execute_Ev+0x46>
 8001980:	f200 2006 	addw	r0, r0, #518	; 0x206
 8001984:	f853 3020 	ldr.w	r3, [r3, r0, lsl #2]
 8001988:	6123      	str	r3, [r4, #16]
 800198a:	68a0      	ldr	r0, [r4, #8]
 800198c:	f7ff ffa8 	bl	80018e0 <_ZN4core5Queue3popEv>
 8001990:	6aa3      	ldr	r3, [r4, #40]	; 0x28
 8001992:	f893 2a18 	ldrb.w	r2, [r3, #2584]	; 0xa18
 8001996:	4282      	cmp	r2, r0
 8001998:	d9e3      	bls.n	8001962 <_ZN4core6Strand8execute_Ev+0x40>
 800199a:	f200 2006 	addw	r0, r0, #518	; 0x206
 800199e:	1d21      	adds	r1, r4, #4
 80019a0:	f853 0020 	ldr.w	r0, [r3, r0, lsl #2]
 80019a4:	6803      	ldr	r3, [r0, #0]
 80019a6:	e8bd 4070 	ldmia.w	sp!, {r4, r5, r6, lr}
 80019aa:	689b      	ldr	r3, [r3, #8]
 80019ac:	4718      	bx	r3
	...

080019b0 <_ZN4core6Engine8instanceEv>:
 80019b0:	b510      	push	{r4, lr}
 80019b2:	4c0a      	ldr	r4, [pc, #40]	; (80019dc <_ZN4core6Engine8instanceEv+0x2c>)
 80019b4:	7823      	ldrb	r3, [r4, #0]
 80019b6:	f3bf 8f5b 	dmb	ish
 80019ba:	07db      	lsls	r3, r3, #31
 80019bc:	d40c      	bmi.n	80019d8 <_ZN4core6Engine8instanceEv+0x28>
 80019be:	4620      	mov	r0, r4
 80019c0:	f002 fc98 	bl	80042f4 <__cxa_guard_acquire>
 80019c4:	b140      	cbz	r0, 80019d8 <_ZN4core6Engine8instanceEv+0x28>
 80019c6:	4806      	ldr	r0, [pc, #24]	; (80019e0 <_ZN4core6Engine8instanceEv+0x30>)
 80019c8:	f000 fb2c 	bl	8002024 <_ZN4core6EngineC1Ev>
 80019cc:	4620      	mov	r0, r4
 80019ce:	f002 fc9d 	bl	800430c <__cxa_guard_release>
 80019d2:	4804      	ldr	r0, [pc, #16]	; (80019e4 <_ZN4core6Engine8instanceEv+0x34>)
 80019d4:	f003 fc89 	bl	80052ea <atexit>
 80019d8:	4801      	ldr	r0, [pc, #4]	; (80019e0 <_ZN4core6Engine8instanceEv+0x30>)
 80019da:	bd10      	pop	{r4, pc}
 80019dc:	20000a50 	.word	0x20000a50
 80019e0:	20000a58 	.word	0x20000a58
 80019e4:	08001741 	.word	0x08001741

080019e8 <_ZN4core6Strand8timeout_Ev>:
 80019e8:	2300      	movs	r3, #0
 80019ea:	b510      	push	{r4, lr}
 80019ec:	7303      	strb	r3, [r0, #12]
 80019ee:	6883      	ldr	r3, [r0, #8]
 80019f0:	e9d3 2303 	ldrd	r2, r3, [r3, #12]
 80019f4:	429a      	cmp	r2, r3
 80019f6:	4604      	mov	r4, r0
 80019f8:	d02a      	beq.n	8001a50 <_ZN4core6Strand8timeout_Ev+0x68>
 80019fa:	f7ff ffd9 	bl	80019b0 <_ZN4core6Engine8instanceEv>
 80019fe:	f8b0 380c 	ldrh.w	r3, [r0, #2060]	; 0x80c
 8001a02:	f8d0 281c 	ldr.w	r2, [r0, #2076]	; 0x81c
 8001a06:	fa12 f383 	uxtah	r3, r2, r3
 8001a0a:	f8d0 2818 	ldr.w	r2, [r0, #2072]	; 0x818
 8001a0e:	1a9b      	subs	r3, r3, r2
 8001a10:	f8b0 280c 	ldrh.w	r2, [r0, #2060]	; 0x80c
 8001a14:	b29b      	uxth	r3, r3
 8001a16:	b292      	uxth	r2, r2
 8001a18:	4293      	cmp	r3, r2
 8001a1a:	bf82      	ittt	hi
 8001a1c:	f8b0 280c 	ldrhhi.w	r2, [r0, #2060]	; 0x80c
 8001a20:	1a9b      	subhi	r3, r3, r2
 8001a22:	b29b      	uxthhi	r3, r3
 8001a24:	b193      	cbz	r3, 8001a4c <_ZN4core6Strand8timeout_Ev+0x64>
 8001a26:	7e22      	ldrb	r2, [r4, #24]
 8001a28:	b672      	cpsid	i
 8001a2a:	f8d0 3818 	ldr.w	r3, [r0, #2072]	; 0x818
 8001a2e:	701a      	strb	r2, [r3, #0]
 8001a30:	f8d0 3818 	ldr.w	r3, [r0, #2072]	; 0x818
 8001a34:	f8d0 2814 	ldr.w	r2, [r0, #2068]	; 0x814
 8001a38:	3301      	adds	r3, #1
 8001a3a:	4293      	cmp	r3, r2
 8001a3c:	f8c0 3818 	str.w	r3, [r0, #2072]	; 0x818
 8001a40:	bf04      	itt	eq
 8001a42:	f8d0 3810 	ldreq.w	r3, [r0, #2064]	; 0x810
 8001a46:	f8c0 3818 	streq.w	r3, [r0, #2072]	; 0x818
 8001a4a:	b662      	cpsie	i
 8001a4c:	2301      	movs	r3, #1
 8001a4e:	7323      	strb	r3, [r4, #12]
 8001a50:	bd10      	pop	{r4, pc}

08001a52 <_ZN5esp329TcpClient15timeoutHandler_Ev>:
 8001a52:	b537      	push	{r0, r1, r2, r4, r5, lr}
 8001a54:	2300      	movs	r3, #0
 8001a56:	4604      	mov	r4, r0
 8001a58:	f88d 3007 	strb.w	r3, [sp, #7]
 8001a5c:	f7ff ffa8 	bl	80019b0 <_ZN4core6Engine8instanceEv>
 8001a60:	6883      	ldr	r3, [r0, #8]
 8001a62:	7f21      	ldrb	r1, [r4, #28]
 8001a64:	681d      	ldr	r5, [r3, #0]
 8001a66:	f10d 0207 	add.w	r2, sp, #7
 8001a6a:	2301      	movs	r3, #1
 8001a6c:	3008      	adds	r0, #8
 8001a6e:	47a8      	blx	r5
 8001a70:	b003      	add	sp, #12
 8001a72:	bd30      	pop	{r4, r5, pc}

08001a74 <_ZN7console10Controller8instanceEv>:
 8001a74:	b573      	push	{r0, r1, r4, r5, r6, lr}
 8001a76:	4e13      	ldr	r6, [pc, #76]	; (8001ac4 <_ZN7console10Controller8instanceEv+0x50>)
 8001a78:	7834      	ldrb	r4, [r6, #0]
 8001a7a:	f3bf 8f5b 	dmb	ish
 8001a7e:	f014 0401 	ands.w	r4, r4, #1
 8001a82:	d11b      	bne.n	8001abc <_ZN7console10Controller8instanceEv+0x48>
 8001a84:	4630      	mov	r0, r6
 8001a86:	f002 fc35 	bl	80042f4 <__cxa_guard_acquire>
 8001a8a:	b1b8      	cbz	r0, 8001abc <_ZN7console10Controller8instanceEv+0x48>
 8001a8c:	4d0e      	ldr	r5, [pc, #56]	; (8001ac8 <_ZN7console10Controller8instanceEv+0x54>)
 8001a8e:	4b0f      	ldr	r3, [pc, #60]	; (8001acc <_ZN7console10Controller8instanceEv+0x58>)
 8001a90:	602b      	str	r3, [r5, #0]
 8001a92:	4b0f      	ldr	r3, [pc, #60]	; (8001ad0 <_ZN7console10Controller8instanceEv+0x5c>)
 8001a94:	e9cd 3400 	strd	r3, r4, [sp]
 8001a98:	ab02      	add	r3, sp, #8
 8001a9a:	e913 000c 	ldmdb	r3, {r2, r3}
 8001a9e:	4629      	mov	r1, r5
 8001aa0:	f105 0008 	add.w	r0, r5, #8
 8001aa4:	f000 fbe2 	bl	800226c <_ZN4core4TaskC1EPNS_9ComponentEMS1_FvvE>
 8001aa8:	4630      	mov	r0, r6
 8001aaa:	62ac      	str	r4, [r5, #40]	; 0x28
 8001aac:	f885 402c 	strb.w	r4, [r5, #44]	; 0x2c
 8001ab0:	652c      	str	r4, [r5, #80]	; 0x50
 8001ab2:	f002 fc2b 	bl	800430c <__cxa_guard_release>
 8001ab6:	4807      	ldr	r0, [pc, #28]	; (8001ad4 <_ZN7console10Controller8instanceEv+0x60>)
 8001ab8:	f003 fc17 	bl	80052ea <atexit>
 8001abc:	4802      	ldr	r0, [pc, #8]	; (8001ac8 <_ZN7console10Controller8instanceEv+0x54>)
 8001abe:	b002      	add	sp, #8
 8001ac0:	bd70      	pop	{r4, r5, r6, pc}
 8001ac2:	bf00      	nop
 8001ac4:	200009f4 	.word	0x200009f4
 8001ac8:	200009f8 	.word	0x200009f8
 8001acc:	08005dfc 	.word	0x08005dfc
 8001ad0:	080015b9 	.word	0x080015b9
 8001ad4:	080018df 	.word	0x080018df

08001ad8 <_ZN5esp329TcpClientC1Ev>:
 8001ad8:	b5f0      	push	{r4, r5, r6, r7, lr}
 8001ada:	4b74      	ldr	r3, [pc, #464]	; (8001cac <_ZN5esp329TcpClientC1Ev+0x1d4>)
 8001adc:	4e74      	ldr	r6, [pc, #464]	; (8001cb0 <_ZN5esp329TcpClientC1Ev+0x1d8>)
 8001ade:	2500      	movs	r5, #0
 8001ae0:	e9c0 3503 	strd	r3, r5, [r0, #12]
 8001ae4:	4b73      	ldr	r3, [pc, #460]	; (8001cb4 <_ZN5esp329TcpClientC1Ev+0x1dc>)
 8001ae6:	6003      	str	r3, [r0, #0]
 8001ae8:	4604      	mov	r4, r0
 8001aea:	b095      	sub	sp, #84	; 0x54
 8001aec:	e9c0 5501 	strd	r5, r5, [r0, #4]
 8001af0:	7505      	strb	r5, [r0, #20]
 8001af2:	3018      	adds	r0, #24
 8001af4:	f000 face 	bl	8002094 <_ZN4core5EventC1Ev>
 8001af8:	4b6f      	ldr	r3, [pc, #444]	; (8001cb8 <_ZN5esp329TcpClientC1Ev+0x1e0>)
 8001afa:	61a3      	str	r3, [r4, #24]
 8001afc:	4b6f      	ldr	r3, [pc, #444]	; (8001cbc <_ZN5esp329TcpClientC1Ev+0x1e4>)
 8001afe:	6224      	str	r4, [r4, #32]
 8001b00:	4620      	mov	r0, r4
 8001b02:	e9c4 3509 	strd	r3, r5, [r4, #36]	; 0x24
 8001b06:	4b6e      	ldr	r3, [pc, #440]	; (8001cc0 <_ZN5esp329TcpClientC1Ev+0x1e8>)
 8001b08:	f840 3b30 	str.w	r3, [r0], #48
 8001b0c:	4b6d      	ldr	r3, [pc, #436]	; (8001cc4 <_ZN5esp329TcpClientC1Ev+0x1ec>)
 8001b0e:	4a6d      	ldr	r2, [pc, #436]	; (8001cc4 <_ZN5esp329TcpClientC1Ev+0x1ec>)
 8001b10:	4621      	mov	r1, r4
 8001b12:	e9cd 3500 	strd	r3, r5, [sp]
 8001b16:	462b      	mov	r3, r5
 8001b18:	f000 fba8 	bl	800226c <_ZN4core4TaskC1EPNS_9ComponentEMS1_FvvE>
 8001b1c:	f104 0050 	add.w	r0, r4, #80	; 0x50
 8001b20:	f000 fab8 	bl	8002094 <_ZN4core5EventC1Ev>
 8001b24:	4b68      	ldr	r3, [pc, #416]	; (8001cc8 <_ZN5esp329TcpClientC1Ev+0x1f0>)
 8001b26:	6526      	str	r6, [r4, #80]	; 0x50
 8001b28:	e9c4 3517 	strd	r3, r5, [r4, #92]	; 0x5c
 8001b2c:	65a4      	str	r4, [r4, #88]	; 0x58
 8001b2e:	f104 0064 	add.w	r0, r4, #100	; 0x64
 8001b32:	f000 faaf 	bl	8002094 <_ZN4core5EventC1Ev>
 8001b36:	4b65      	ldr	r3, [pc, #404]	; (8001ccc <_ZN5esp329TcpClientC1Ev+0x1f4>)
 8001b38:	6666      	str	r6, [r4, #100]	; 0x64
 8001b3a:	e9c4 351c 	strd	r3, r5, [r4, #112]	; 0x70
 8001b3e:	66e4      	str	r4, [r4, #108]	; 0x6c
 8001b40:	f104 0078 	add.w	r0, r4, #120	; 0x78
 8001b44:	f000 faa6 	bl	8002094 <_ZN4core5EventC1Ev>
 8001b48:	4b61      	ldr	r3, [pc, #388]	; (8001cd0 <_ZN5esp329TcpClientC1Ev+0x1f8>)
 8001b4a:	67a3      	str	r3, [r4, #120]	; 0x78
 8001b4c:	4b61      	ldr	r3, [pc, #388]	; (8001cd4 <_ZN5esp329TcpClientC1Ev+0x1fc>)
 8001b4e:	f8c4 4080 	str.w	r4, [r4, #128]	; 0x80
 8001b52:	e9c4 3521 	strd	r3, r5, [r4, #132]	; 0x84
 8001b56:	f104 038c 	add.w	r3, r4, #140	; 0x8c
 8001b5a:	f8c4 3490 	str.w	r3, [r4, #1168]	; 0x490
 8001b5e:	f8c4 3498 	str.w	r3, [r4, #1176]	; 0x498
 8001b62:	f8c4 349c 	str.w	r3, [r4, #1180]	; 0x49c
 8001b66:	4b5c      	ldr	r3, [pc, #368]	; (8001cd8 <_ZN5esp329TcpClientC1Ev+0x200>)
 8001b68:	f8c4 34a0 	str.w	r3, [r4, #1184]	; 0x4a0
 8001b6c:	f204 428c 	addw	r2, r4, #1164	; 0x48c
 8001b70:	f44f 6180 	mov.w	r1, #1024	; 0x400
 8001b74:	3324      	adds	r3, #36	; 0x24
 8001b76:	f8a4 148c 	strh.w	r1, [r4, #1164]	; 0x48c
 8001b7a:	f8c4 2494 	str.w	r2, [r4, #1172]	; 0x494
 8001b7e:	f8c4 24a8 	str.w	r2, [r4, #1192]	; 0x4a8
 8001b82:	f8c4 34a4 	str.w	r3, [r4, #1188]	; 0x4a4
 8001b86:	f884 54ac 	strb.w	r5, [r4, #1196]	; 0x4ac
 8001b8a:	f8c4 54b0 	str.w	r5, [r4, #1200]	; 0x4b0
 8001b8e:	f204 40b4 	addw	r0, r4, #1204	; 0x4b4
 8001b92:	f000 fa7f 	bl	8002094 <_ZN4core5EventC1Ev>
 8001b96:	f504 6794 	add.w	r7, r4, #1184	; 0x4a0
 8001b9a:	4b50      	ldr	r3, [pc, #320]	; (8001cdc <_ZN5esp329TcpClientC1Ev+0x204>)
 8001b9c:	f8c4 34c0 	str.w	r3, [r4, #1216]	; 0x4c0
 8001ba0:	f8c4 64b4 	str.w	r6, [r4, #1204]	; 0x4b4
 8001ba4:	f8c4 74bc 	str.w	r7, [r4, #1212]	; 0x4bc
 8001ba8:	f8c4 54c4 	str.w	r5, [r4, #1220]	; 0x4c4
 8001bac:	f7ff ff00 	bl	80019b0 <_ZN4core6Engine8instanceEv>
 8001bb0:	4b4b      	ldr	r3, [pc, #300]	; (8001ce0 <_ZN5esp329TcpClientC1Ev+0x208>)
 8001bb2:	e9cd 3512 	strd	r3, r5, [sp, #72]	; 0x48
 8001bb6:	3008      	adds	r0, #8
 8001bb8:	ab14      	add	r3, sp, #80	; 0x50
 8001bba:	e913 000c 	ldmdb	r3, {r2, r3}
 8001bbe:	f8c4 04c8 	str.w	r0, [r4, #1224]	; 0x4c8
 8001bc2:	4639      	mov	r1, r7
 8001bc4:	f504 609a 	add.w	r0, r4, #1232	; 0x4d0
 8001bc8:	f000 fb50 	bl	800226c <_ZN4core4TaskC1EPNS_9ComponentEMS1_FvvE>
 8001bcc:	4b45      	ldr	r3, [pc, #276]	; (8001ce4 <_ZN5esp329TcpClientC1Ev+0x20c>)
 8001bce:	4a45      	ldr	r2, [pc, #276]	; (8001ce4 <_ZN5esp329TcpClientC1Ev+0x20c>)
 8001bd0:	e9cd 3502 	strd	r3, r5, [sp, #8]
 8001bd4:	4621      	mov	r1, r4
 8001bd6:	462b      	mov	r3, r5
 8001bd8:	f504 609e 	add.w	r0, r4, #1264	; 0x4f0
 8001bdc:	f000 ff18 	bl	8002a10 <_ZN5esp328EspEventC1EPN4core9ComponentEMS2_FvbPhtE>
 8001be0:	4b41      	ldr	r3, [pc, #260]	; (8001ce8 <_ZN5esp329TcpClientC1Ev+0x210>)
 8001be2:	4a41      	ldr	r2, [pc, #260]	; (8001ce8 <_ZN5esp329TcpClientC1Ev+0x210>)
 8001be4:	e9cd 3504 	strd	r3, r5, [sp, #16]
 8001be8:	4621      	mov	r1, r4
 8001bea:	462b      	mov	r3, r5
 8001bec:	f504 60a0 	add.w	r0, r4, #1280	; 0x500
 8001bf0:	f000 ff0e 	bl	8002a10 <_ZN5esp328EspEventC1EPN4core9ComponentEMS2_FvbPhtE>
 8001bf4:	4b3d      	ldr	r3, [pc, #244]	; (8001cec <_ZN5esp329TcpClientC1Ev+0x214>)
 8001bf6:	4a3d      	ldr	r2, [pc, #244]	; (8001cec <_ZN5esp329TcpClientC1Ev+0x214>)
 8001bf8:	e9cd 3506 	strd	r3, r5, [sp, #24]
 8001bfc:	4621      	mov	r1, r4
 8001bfe:	462b      	mov	r3, r5
 8001c00:	f504 60a2 	add.w	r0, r4, #1296	; 0x510
 8001c04:	f000 ff04 	bl	8002a10 <_ZN5esp328EspEventC1EPN4core9ComponentEMS2_FvbPhtE>
 8001c08:	4b39      	ldr	r3, [pc, #228]	; (8001cf0 <_ZN5esp329TcpClientC1Ev+0x218>)
 8001c0a:	4a39      	ldr	r2, [pc, #228]	; (8001cf0 <_ZN5esp329TcpClientC1Ev+0x218>)
 8001c0c:	e9cd 3508 	strd	r3, r5, [sp, #32]
 8001c10:	4621      	mov	r1, r4
 8001c12:	462b      	mov	r3, r5
 8001c14:	f504 60a4 	add.w	r0, r4, #1312	; 0x520
 8001c18:	f000 fefa 	bl	8002a10 <_ZN5esp328EspEventC1EPN4core9ComponentEMS2_FvbPhtE>
 8001c1c:	4b35      	ldr	r3, [pc, #212]	; (8001cf4 <_ZN5esp329TcpClientC1Ev+0x21c>)
 8001c1e:	4a35      	ldr	r2, [pc, #212]	; (8001cf4 <_ZN5esp329TcpClientC1Ev+0x21c>)
 8001c20:	e9cd 350a 	strd	r3, r5, [sp, #40]	; 0x28
 8001c24:	4621      	mov	r1, r4
 8001c26:	462b      	mov	r3, r5
 8001c28:	f504 60a6 	add.w	r0, r4, #1328	; 0x530
 8001c2c:	f000 fef0 	bl	8002a10 <_ZN5esp328EspEventC1EPN4core9ComponentEMS2_FvbPhtE>
 8001c30:	4b31      	ldr	r3, [pc, #196]	; (8001cf8 <_ZN5esp329TcpClientC1Ev+0x220>)
 8001c32:	4a31      	ldr	r2, [pc, #196]	; (8001cf8 <_ZN5esp329TcpClientC1Ev+0x220>)
 8001c34:	e9cd 350c 	strd	r3, r5, [sp, #48]	; 0x30
 8001c38:	4621      	mov	r1, r4
 8001c3a:	462b      	mov	r3, r5
 8001c3c:	f504 60a8 	add.w	r0, r4, #1344	; 0x540
 8001c40:	f000 fee6 	bl	8002a10 <_ZN5esp328EspEventC1EPN4core9ComponentEMS2_FvbPhtE>
 8001c44:	4b2d      	ldr	r3, [pc, #180]	; (8001cfc <_ZN5esp329TcpClientC1Ev+0x224>)
 8001c46:	4a2d      	ldr	r2, [pc, #180]	; (8001cfc <_ZN5esp329TcpClientC1Ev+0x224>)
 8001c48:	e9cd 350e 	strd	r3, r5, [sp, #56]	; 0x38
 8001c4c:	4621      	mov	r1, r4
 8001c4e:	462b      	mov	r3, r5
 8001c50:	f504 60aa 	add.w	r0, r4, #1360	; 0x550
 8001c54:	f000 fedc 	bl	8002a10 <_ZN5esp328EspEventC1EPN4core9ComponentEMS2_FvbPhtE>
 8001c58:	4b29      	ldr	r3, [pc, #164]	; (8001d00 <_ZN5esp329TcpClientC1Ev+0x228>)
 8001c5a:	4a29      	ldr	r2, [pc, #164]	; (8001d00 <_ZN5esp329TcpClientC1Ev+0x228>)
 8001c5c:	4621      	mov	r1, r4
 8001c5e:	e9cd 3510 	strd	r3, r5, [sp, #64]	; 0x40
 8001c62:	f504 60ac 	add.w	r0, r4, #1376	; 0x560
 8001c66:	462b      	mov	r3, r5
 8001c68:	f000 fed2 	bl	8002a10 <_ZN5esp328EspEventC1EPN4core9ComponentEMS2_FvbPhtE>
 8001c6c:	f504 60ae 	add.w	r0, r4, #1392	; 0x570
 8001c70:	f000 fa10 	bl	8002094 <_ZN4core5EventC1Ev>
 8001c74:	4b23      	ldr	r3, [pc, #140]	; (8001d04 <_ZN5esp329TcpClientC1Ev+0x22c>)
 8001c76:	f8c4 3570 	str.w	r3, [r4, #1392]	; 0x570
 8001c7a:	4b23      	ldr	r3, [pc, #140]	; (8001d08 <_ZN5esp329TcpClientC1Ev+0x230>)
 8001c7c:	f8c4 357c 	str.w	r3, [r4, #1404]	; 0x57c
 8001c80:	f8c4 4578 	str.w	r4, [r4, #1400]	; 0x578
 8001c84:	f8c4 5580 	str.w	r5, [r4, #1408]	; 0x580
 8001c88:	f8c4 5584 	str.w	r5, [r4, #1412]	; 0x584
 8001c8c:	220f      	movs	r2, #15
 8001c8e:	4629      	mov	r1, r5
 8001c90:	f504 60b1 	add.w	r0, r4, #1416	; 0x588
 8001c94:	f003 fb6a 	bl	800536c <memset>
 8001c98:	4b1c      	ldr	r3, [pc, #112]	; (8001d0c <_ZN5esp329TcpClientC1Ev+0x234>)
 8001c9a:	f8c4 3598 	str.w	r3, [r4, #1432]	; 0x598
 8001c9e:	4620      	mov	r0, r4
 8001ca0:	f8c4 559c 	str.w	r5, [r4, #1436]	; 0x59c
 8001ca4:	f8a4 55a0 	strh.w	r5, [r4, #1440]	; 0x5a0
 8001ca8:	b015      	add	sp, #84	; 0x54
 8001caa:	bdf0      	pop	{r4, r5, r6, r7, pc}
 8001cac:	08000ec5 	.word	0x08000ec5
 8001cb0:	08005db8 	.word	0x08005db8
 8001cb4:	08005e54 	.word	0x08005e54
 8001cb8:	08005dcc 	.word	0x08005dcc
 8001cbc:	08001743 	.word	0x08001743
 8001cc0:	08006084 	.word	0x08006084
 8001cc4:	08001a53 	.word	0x08001a53
 8001cc8:	080036e1 	.word	0x080036e1
 8001ccc:	080036f9 	.word	0x080036f9
 8001cd0:	08005eac 	.word	0x08005eac
 8001cd4:	08003539 	.word	0x08003539
 8001cd8:	08005e70 	.word	0x08005e70
 8001cdc:	08001923 	.word	0x08001923
 8001ce0:	080019e9 	.word	0x080019e9
 8001ce4:	080033eb 	.word	0x080033eb
 8001ce8:	08003409 	.word	0x08003409
 8001cec:	0800340d 	.word	0x0800340d
 8001cf0:	08003475 	.word	0x08003475
 8001cf4:	080034a5 	.word	0x080034a5
 8001cf8:	08003501 	.word	0x08003501
 8001cfc:	08003505 	.word	0x08003505
 8001d00:	08003509 	.word	0x08003509
 8001d04:	08005ec0 	.word	0x08005ec0
 8001d08:	080036bd 	.word	0x080036bd
 8001d0c:	08005e24 	.word	0x08005e24

08001d10 <_ZN5esp329TcpClient8instanceEv>:
 8001d10:	b510      	push	{r4, lr}
 8001d12:	4c0a      	ldr	r4, [pc, #40]	; (8001d3c <_ZN5esp329TcpClient8instanceEv+0x2c>)
 8001d14:	7823      	ldrb	r3, [r4, #0]
 8001d16:	f3bf 8f5b 	dmb	ish
 8001d1a:	07db      	lsls	r3, r3, #31
 8001d1c:	d40c      	bmi.n	8001d38 <_ZN5esp329TcpClient8instanceEv+0x28>
 8001d1e:	4620      	mov	r0, r4
 8001d20:	f002 fae8 	bl	80042f4 <__cxa_guard_acquire>
 8001d24:	b140      	cbz	r0, 8001d38 <_ZN5esp329TcpClient8instanceEv+0x28>
 8001d26:	4806      	ldr	r0, [pc, #24]	; (8001d40 <_ZN5esp329TcpClient8instanceEv+0x30>)
 8001d28:	f7ff fed6 	bl	8001ad8 <_ZN5esp329TcpClientC1Ev>
 8001d2c:	4620      	mov	r0, r4
 8001d2e:	f002 faed 	bl	800430c <__cxa_guard_release>
 8001d32:	4804      	ldr	r0, [pc, #16]	; (8001d44 <_ZN5esp329TcpClient8instanceEv+0x34>)
 8001d34:	f003 fad9 	bl	80052ea <atexit>
 8001d38:	4801      	ldr	r0, [pc, #4]	; (8001d40 <_ZN5esp329TcpClient8instanceEv+0x30>)
 8001d3a:	bd10      	pop	{r4, pc}
 8001d3c:	20001498 	.word	0x20001498
 8001d40:	200014a0 	.word	0x200014a0
 8001d44:	080018dd 	.word	0x080018dd

08001d48 <_ZN6device10Controller4initEv>:
 8001d48:	b510      	push	{r4, lr}
 8001d4a:	f7ff fe93 	bl	8001a74 <_ZN7console10Controller8instanceEv>
 8001d4e:	6803      	ldr	r3, [r0, #0]
 8001d50:	681b      	ldr	r3, [r3, #0]
 8001d52:	4798      	blx	r3
 8001d54:	f7ff ffdc 	bl	8001d10 <_ZN5esp329TcpClient8instanceEv>
 8001d58:	6803      	ldr	r3, [r0, #0]
 8001d5a:	e8bd 4010 	ldmia.w	sp!, {r4, lr}
 8001d5e:	681b      	ldr	r3, [r3, #0]
 8001d60:	4718      	bx	r3
	...

08001d64 <_ZN6device10Controller26data2ServerCommandHandler_EhPh>:
 8001d64:	b538      	push	{r3, r4, r5, lr}
 8001d66:	4614      	mov	r4, r2
 8001d68:	460d      	mov	r5, r1
 8001d6a:	f7ff fe83 	bl	8001a74 <_ZN7console10Controller8instanceEv>
 8001d6e:	4905      	ldr	r1, [pc, #20]	; (8001d84 <_ZN6device10Controller26data2ServerCommandHandler_EhPh+0x20>)
 8001d70:	f7ff f98f 	bl	8001092 <_ZN7console10Controller6printfEPKcz>
 8001d74:	f7ff ffcc 	bl	8001d10 <_ZN5esp329TcpClient8instanceEv>
 8001d78:	462a      	mov	r2, r5
 8001d7a:	4621      	mov	r1, r4
 8001d7c:	e8bd 4038 	ldmia.w	sp!, {r3, r4, r5, lr}
 8001d80:	f001 bad0 	b.w	8003324 <_ZN5esp329TcpClient15sendData2ServerEPht>
 8001d84:	08005e36 	.word	0x08005e36

08001d88 <__tcf_3>:
 8001d88:	4770      	bx	lr

08001d8a <_ZN6device10Controller15timeoutHandler_Ev>:
 8001d8a:	b537      	push	{r0, r1, r2, r4, r5, lr}
 8001d8c:	2300      	movs	r3, #0
 8001d8e:	4604      	mov	r4, r0
 8001d90:	f88d 3007 	strb.w	r3, [sp, #7]
 8001d94:	f7ff fe0c 	bl	80019b0 <_ZN4core6Engine8instanceEv>
 8001d98:	6883      	ldr	r3, [r0, #8]
 8001d9a:	7f21      	ldrb	r1, [r4, #28]
 8001d9c:	681d      	ldr	r5, [r3, #0]
 8001d9e:	f10d 0207 	add.w	r2, sp, #7
 8001da2:	2301      	movs	r3, #1
 8001da4:	3008      	adds	r0, #8
 8001da6:	47a8      	blx	r5
 8001da8:	b003      	add	sp, #12
 8001daa:	bd30      	pop	{r4, r5, pc}

08001dac <_ZN6device10Controller8instanceEv>:
 8001dac:	b573      	push	{r0, r1, r4, r5, r6, lr}
 8001dae:	4e1d      	ldr	r6, [pc, #116]	; (8001e24 <_ZN6device10Controller8instanceEv+0x78>)
 8001db0:	7835      	ldrb	r5, [r6, #0]
 8001db2:	f3bf 8f5b 	dmb	ish
 8001db6:	f015 0501 	ands.w	r5, r5, #1
 8001dba:	d130      	bne.n	8001e1e <_ZN6device10Controller8instanceEv+0x72>
 8001dbc:	4630      	mov	r0, r6
 8001dbe:	f002 fa99 	bl	80042f4 <__cxa_guard_acquire>
 8001dc2:	b360      	cbz	r0, 8001e1e <_ZN6device10Controller8instanceEv+0x72>
 8001dc4:	4c18      	ldr	r4, [pc, #96]	; (8001e28 <_ZN6device10Controller8instanceEv+0x7c>)
 8001dc6:	4b19      	ldr	r3, [pc, #100]	; (8001e2c <_ZN6device10Controller8instanceEv+0x80>)
 8001dc8:	7525      	strb	r5, [r4, #20]
 8001dca:	e9c4 3503 	strd	r3, r5, [r4, #12]
 8001dce:	f104 0018 	add.w	r0, r4, #24
 8001dd2:	4b17      	ldr	r3, [pc, #92]	; (8001e30 <_ZN6device10Controller8instanceEv+0x84>)
 8001dd4:	6023      	str	r3, [r4, #0]
 8001dd6:	e9c4 5501 	strd	r5, r5, [r4, #4]
 8001dda:	f000 f95b 	bl	8002094 <_ZN4core5EventC1Ev>
 8001dde:	4b15      	ldr	r3, [pc, #84]	; (8001e34 <_ZN6device10Controller8instanceEv+0x88>)
 8001de0:	61a3      	str	r3, [r4, #24]
 8001de2:	4b15      	ldr	r3, [pc, #84]	; (8001e38 <_ZN6device10Controller8instanceEv+0x8c>)
 8001de4:	6224      	str	r4, [r4, #32]
 8001de6:	e9c4 3509 	strd	r3, r5, [r4, #36]	; 0x24
 8001dea:	4b14      	ldr	r3, [pc, #80]	; (8001e3c <_ZN6device10Controller8instanceEv+0x90>)
 8001dec:	6023      	str	r3, [r4, #0]
 8001dee:	4b14      	ldr	r3, [pc, #80]	; (8001e40 <_ZN6device10Controller8instanceEv+0x94>)
 8001df0:	e9cd 3500 	strd	r3, r5, [sp]
 8001df4:	ab02      	add	r3, sp, #8
 8001df6:	e913 000c 	ldmdb	r3, {r2, r3}
 8001dfa:	4621      	mov	r1, r4
 8001dfc:	f104 0030 	add.w	r0, r4, #48	; 0x30
 8001e00:	f000 fa34 	bl	800226c <_ZN4core4TaskC1EPNS_9ComponentEMS1_FvvE>
 8001e04:	f7ff fe36 	bl	8001a74 <_ZN7console10Controller8instanceEv>
 8001e08:	4a0e      	ldr	r2, [pc, #56]	; (8001e44 <_ZN6device10Controller8instanceEv+0x98>)
 8001e0a:	2164      	movs	r1, #100	; 0x64
 8001e0c:	f7ff f959 	bl	80010c2 <_ZN7console10Controller15registerCommandEtPFvthPhE>
 8001e10:	6520      	str	r0, [r4, #80]	; 0x50
 8001e12:	4630      	mov	r0, r6
 8001e14:	f002 fa7a 	bl	800430c <__cxa_guard_release>
 8001e18:	480b      	ldr	r0, [pc, #44]	; (8001e48 <_ZN6device10Controller8instanceEv+0x9c>)
 8001e1a:	f003 fa66 	bl	80052ea <atexit>
 8001e1e:	4802      	ldr	r0, [pc, #8]	; (8001e28 <_ZN6device10Controller8instanceEv+0x7c>)
 8001e20:	b002      	add	sp, #8
 8001e22:	bd70      	pop	{r4, r5, r6, pc}
 8001e24:	20001a48 	.word	0x20001a48
 8001e28:	20001a50 	.word	0x20001a50
 8001e2c:	08000ec5 	.word	0x08000ec5
 8001e30:	08005e54 	.word	0x08005e54
 8001e34:	08005dcc 	.word	0x08005dcc
 8001e38:	08001743 	.word	0x08001743
 8001e3c:	08005ed4 	.word	0x08005ed4
 8001e40:	08001d8b 	.word	0x08001d8b
 8001e44:	08001e4d 	.word	0x08001e4d
 8001e48:	08001d89 	.word	0x08001d89

08001e4c <_ZN6device10Controller18data2ServerCommandEthPh>:
 8001e4c:	b570      	push	{r4, r5, r6, lr}
 8001e4e:	460c      	mov	r4, r1
 8001e50:	4615      	mov	r5, r2
 8001e52:	4606      	mov	r6, r0
 8001e54:	f7ff ffaa 	bl	8001dac <_ZN6device10Controller8instanceEv>
 8001e58:	462a      	mov	r2, r5
 8001e5a:	4621      	mov	r1, r4
 8001e5c:	f7ff ff82 	bl	8001d64 <_ZN6device10Controller26data2ServerCommandHandler_EhPh>
 8001e60:	f7ff fe08 	bl	8001a74 <_ZN7console10Controller8instanceEv>
 8001e64:	462b      	mov	r3, r5
 8001e66:	4622      	mov	r2, r4
 8001e68:	4631      	mov	r1, r6
 8001e6a:	e8bd 4070 	ldmia.w	sp!, {r4, r5, r6, lr}
 8001e6e:	f7ff b946 	b.w	80010fe <_ZN7console10Controller15updateTextFieldEthPh>

08001e72 <main>:
 8001e72:	b508      	push	{r3, lr}
 8001e74:	f7ff ff9a 	bl	8001dac <_ZN6device10Controller8instanceEv>
 8001e78:	6803      	ldr	r3, [r0, #0]
 8001e7a:	681b      	ldr	r3, [r3, #0]
 8001e7c:	4798      	blx	r3
 8001e7e:	f7ff fd97 	bl	80019b0 <_ZN4core6Engine8instanceEv>
 8001e82:	f000 f933 	bl	80020ec <_ZN4core6Engine3runEv>
 8001e86:	2000      	movs	r0, #0
 8001e88:	bd08      	pop	{r3, pc}

08001e8a <_ZN4core10EventQueueD1Ev>:
 8001e8a:	4770      	bx	lr

08001e8c <_ZN4core6EngineD1Ev>:
 8001e8c:	4770      	bx	lr

08001e8e <__tcf_0>:
 8001e8e:	4770      	bx	lr

08001e90 <_ZN4core10EventQueueD0Ev>:
 8001e90:	b510      	push	{r4, lr}
 8001e92:	f640 211c 	movw	r1, #2588	; 0xa1c
 8001e96:	4604      	mov	r4, r0
 8001e98:	f002 fa2a 	bl	80042f0 <_ZdlPvj>
 8001e9c:	4620      	mov	r0, r4
 8001e9e:	bd10      	pop	{r4, pc}

08001ea0 <_ZN4core6EngineD0Ev>:
 8001ea0:	b510      	push	{r4, lr}
 8001ea2:	f44f 6124 	mov.w	r1, #2624	; 0xa40
 8001ea6:	4604      	mov	r4, r0
 8001ea8:	f002 fa22 	bl	80042f0 <_ZdlPvj>
 8001eac:	4620      	mov	r0, r4
 8001eae:	bd10      	pop	{r4, pc}

08001eb0 <_ZN4core6Engine7executeEPNS_18AbstractEventQueueE>:
 8001eb0:	e92d 47f0 	stmdb	sp!, {r4, r5, r6, r7, r8, r9, sl, lr}
 8001eb4:	4604      	mov	r4, r0
 8001eb6:	f8d0 0a28 	ldr.w	r0, [r0, #2600]	; 0xa28
 8001eba:	f04f 36ff 	mov.w	r6, #4294967295
 8001ebe:	f04f 37ff 	mov.w	r7, #4294967295
 8001ec2:	f504 6a23 	add.w	sl, r4, #2608	; 0xa30
 8001ec6:	b190      	cbz	r0, 8001eee <_ZN4core6Engine7executeEPNS_18AbstractEventQueueE+0x3e>
 8001ec8:	e9d0 2302 	ldrd	r2, r3, [r0, #8]
 8001ecc:	e9da 8900 	ldrd	r8, r9, [sl]
 8001ed0:	42bb      	cmp	r3, r7
 8001ed2:	bf08      	it	eq
 8001ed4:	42b2      	cmpeq	r2, r6
 8001ed6:	bf3c      	itt	cc
 8001ed8:	4616      	movcc	r6, r2
 8001eda:	461f      	movcc	r7, r3
 8001edc:	4599      	cmp	r9, r3
 8001ede:	bf08      	it	eq
 8001ee0:	4590      	cmpeq	r8, r2
 8001ee2:	6805      	ldr	r5, [r0, #0]
 8001ee4:	d301      	bcc.n	8001eea <_ZN4core6Engine7executeEPNS_18AbstractEventQueueE+0x3a>
 8001ee6:	f000 f9f7 	bl	80022d8 <_ZN4core4Task4run_Ev>
 8001eea:	4628      	mov	r0, r5
 8001eec:	e7eb      	b.n	8001ec6 <_ZN4core6Engine7executeEPNS_18AbstractEventQueueE+0x16>
 8001eee:	f604 2438 	addw	r4, r4, #2616	; 0xa38
 8001ef2:	e9c4 6700 	strd	r6, r7, [r4]
 8001ef6:	e8bd 87f0 	ldmia.w	sp!, {r4, r5, r6, r7, r8, r9, sl, pc}

08001efa <_ZN4core10EventQueue5push_Eh>:
 8001efa:	f8d0 3810 	ldr.w	r3, [r0, #2064]	; 0x810
 8001efe:	7019      	strb	r1, [r3, #0]
 8001f00:	f8d0 3810 	ldr.w	r3, [r0, #2064]	; 0x810
 8001f04:	f8d0 280c 	ldr.w	r2, [r0, #2060]	; 0x80c
 8001f08:	3301      	adds	r3, #1
 8001f0a:	4293      	cmp	r3, r2
 8001f0c:	f8c0 3810 	str.w	r3, [r0, #2064]	; 0x810
 8001f10:	bf04      	itt	eq
 8001f12:	f8d0 3808 	ldreq.w	r3, [r0, #2056]	; 0x808
 8001f16:	f8c0 3810 	streq.w	r3, [r0, #2064]	; 0x810
 8001f1a:	4770      	bx	lr

08001f1c <_ZN4core10EventQueue10pushBufferEhPhh>:
 8001f1c:	b5f8      	push	{r3, r4, r5, r6, r7, lr}
 8001f1e:	f8b0 4804 	ldrh.w	r4, [r0, #2052]	; 0x804
 8001f22:	461e      	mov	r6, r3
 8001f24:	f8d0 3814 	ldr.w	r3, [r0, #2068]	; 0x814
 8001f28:	fa13 f484 	uxtah	r4, r3, r4
 8001f2c:	f8d0 3810 	ldr.w	r3, [r0, #2064]	; 0x810
 8001f30:	1ae4      	subs	r4, r4, r3
 8001f32:	f8b0 3804 	ldrh.w	r3, [r0, #2052]	; 0x804
 8001f36:	b2a4      	uxth	r4, r4
 8001f38:	b29b      	uxth	r3, r3
 8001f3a:	42a3      	cmp	r3, r4
 8001f3c:	bf3e      	ittt	cc
 8001f3e:	f8b0 3804 	ldrhcc.w	r3, [r0, #2052]	; 0x804
 8001f42:	1ae4      	subcc	r4, r4, r3
 8001f44:	b2a4      	uxthcc	r4, r4
 8001f46:	1c73      	adds	r3, r6, #1
 8001f48:	42a3      	cmp	r3, r4
 8001f4a:	4605      	mov	r5, r0
 8001f4c:	4617      	mov	r7, r2
 8001f4e:	da10      	bge.n	8001f72 <_ZN4core10EventQueue10pushBufferEhPhh+0x56>
 8001f50:	b672      	cpsid	i
 8001f52:	f7ff ffd2 	bl	8001efa <_ZN4core10EventQueue5push_Eh>
 8001f56:	4631      	mov	r1, r6
 8001f58:	4628      	mov	r0, r5
 8001f5a:	f7ff ffce 	bl	8001efa <_ZN4core10EventQueue5push_Eh>
 8001f5e:	2400      	movs	r4, #0
 8001f60:	42a6      	cmp	r6, r4
 8001f62:	dd05      	ble.n	8001f70 <_ZN4core10EventQueue10pushBufferEhPhh+0x54>
 8001f64:	5d39      	ldrb	r1, [r7, r4]
 8001f66:	4628      	mov	r0, r5
 8001f68:	f7ff ffc7 	bl	8001efa <_ZN4core10EventQueue5push_Eh>
 8001f6c:	3401      	adds	r4, #1
 8001f6e:	e7f7      	b.n	8001f60 <_ZN4core10EventQueue10pushBufferEhPhh+0x44>
 8001f70:	b662      	cpsie	i
 8001f72:	bdf8      	pop	{r3, r4, r5, r6, r7, pc}

08001f74 <_ZN4core10EventQueue9pushFixedEhPhh>:
 8001f74:	b5f8      	push	{r3, r4, r5, r6, r7, lr}
 8001f76:	f8b0 4804 	ldrh.w	r4, [r0, #2052]	; 0x804
 8001f7a:	461e      	mov	r6, r3
 8001f7c:	f8d0 3814 	ldr.w	r3, [r0, #2068]	; 0x814
 8001f80:	fa13 f484 	uxtah	r4, r3, r4
 8001f84:	f8d0 3810 	ldr.w	r3, [r0, #2064]	; 0x810
 8001f88:	1ae4      	subs	r4, r4, r3
 8001f8a:	f8b0 3804 	ldrh.w	r3, [r0, #2052]	; 0x804
 8001f8e:	b2a4      	uxth	r4, r4
 8001f90:	b29b      	uxth	r3, r3
 8001f92:	42a3      	cmp	r3, r4
 8001f94:	bf3e      	ittt	cc
 8001f96:	f8b0 3804 	ldrhcc.w	r3, [r0, #2052]	; 0x804
 8001f9a:	1ae4      	subcc	r4, r4, r3
 8001f9c:	b2a4      	uxthcc	r4, r4
 8001f9e:	42a6      	cmp	r6, r4
 8001fa0:	4605      	mov	r5, r0
 8001fa2:	4617      	mov	r7, r2
 8001fa4:	da0c      	bge.n	8001fc0 <_ZN4core10EventQueue9pushFixedEhPhh+0x4c>
 8001fa6:	b672      	cpsid	i
 8001fa8:	f7ff ffa7 	bl	8001efa <_ZN4core10EventQueue5push_Eh>
 8001fac:	2400      	movs	r4, #0
 8001fae:	42a6      	cmp	r6, r4
 8001fb0:	dd05      	ble.n	8001fbe <_ZN4core10EventQueue9pushFixedEhPhh+0x4a>
 8001fb2:	5d39      	ldrb	r1, [r7, r4]
 8001fb4:	4628      	mov	r0, r5
 8001fb6:	f7ff ffa0 	bl	8001efa <_ZN4core10EventQueue5push_Eh>
 8001fba:	3401      	adds	r4, #1
 8001fbc:	e7f7      	b.n	8001fae <_ZN4core10EventQueue9pushFixedEhPhh+0x3a>
 8001fbe:	b662      	cpsie	i
 8001fc0:	bdf8      	pop	{r3, r4, r5, r6, r7, pc}

08001fc2 <_ZN4core10EventQueue4pop_Ev>:
 8001fc2:	f8d0 2814 	ldr.w	r2, [r0, #2068]	; 0x814
 8001fc6:	4603      	mov	r3, r0
 8001fc8:	f812 0b01 	ldrb.w	r0, [r2], #1
 8001fcc:	f8d3 180c 	ldr.w	r1, [r3, #2060]	; 0x80c
 8001fd0:	f8c3 2814 	str.w	r2, [r3, #2068]	; 0x814
 8001fd4:	428a      	cmp	r2, r1
 8001fd6:	bf04      	itt	eq
 8001fd8:	f8d3 2808 	ldreq.w	r2, [r3, #2056]	; 0x808
 8001fdc:	f8c3 2814 	streq.w	r2, [r3, #2068]	; 0x814
 8001fe0:	b2c0      	uxtb	r0, r0
 8001fe2:	4770      	bx	lr

08001fe4 <_ZN4core10EventQueue9popBufferEPhRh>:
 8001fe4:	b5f8      	push	{r3, r4, r5, r6, r7, lr}
 8001fe6:	4615      	mov	r5, r2
 8001fe8:	4607      	mov	r7, r0
 8001fea:	460e      	mov	r6, r1
 8001fec:	f7ff ffe9 	bl	8001fc2 <_ZN4core10EventQueue4pop_Ev>
 8001ff0:	2400      	movs	r4, #0
 8001ff2:	7028      	strb	r0, [r5, #0]
 8001ff4:	782b      	ldrb	r3, [r5, #0]
 8001ff6:	42a3      	cmp	r3, r4
 8001ff8:	dd05      	ble.n	8002006 <_ZN4core10EventQueue9popBufferEPhRh+0x22>
 8001ffa:	4638      	mov	r0, r7
 8001ffc:	f7ff ffe1 	bl	8001fc2 <_ZN4core10EventQueue4pop_Ev>
 8002000:	5530      	strb	r0, [r6, r4]
 8002002:	3401      	adds	r4, #1
 8002004:	e7f6      	b.n	8001ff4 <_ZN4core10EventQueue9popBufferEPhRh+0x10>
 8002006:	bdf8      	pop	{r3, r4, r5, r6, r7, pc}

08002008 <_ZN4core10EventQueue8popFixedEPhh>:
 8002008:	b5f8      	push	{r3, r4, r5, r6, r7, lr}
 800200a:	4606      	mov	r6, r0
 800200c:	460d      	mov	r5, r1
 800200e:	4617      	mov	r7, r2
 8002010:	2400      	movs	r4, #0
 8002012:	42a7      	cmp	r7, r4
 8002014:	dd05      	ble.n	8002022 <_ZN4core10EventQueue8popFixedEPhh+0x1a>
 8002016:	4630      	mov	r0, r6
 8002018:	f7ff ffd3 	bl	8001fc2 <_ZN4core10EventQueue4pop_Ev>
 800201c:	5528      	strb	r0, [r5, r4]
 800201e:	3401      	adds	r4, #1
 8002020:	e7f7      	b.n	8002012 <_ZN4core10EventQueue8popFixedEPhh+0xa>
 8002022:	bdf8      	pop	{r3, r4, r5, r6, r7, pc}

08002024 <_ZN4core6EngineC1Ev>:
 8002024:	4a19      	ldr	r2, [pc, #100]	; (800208c <_ZN4core6EngineC1Ev+0x68>)
 8002026:	b510      	push	{r4, lr}
 8002028:	6002      	str	r2, [r0, #0]
 800202a:	4a19      	ldr	r2, [pc, #100]	; (8002090 <_ZN4core6EngineC1Ev+0x6c>)
 800202c:	6082      	str	r2, [r0, #8]
 800202e:	f44f 6200 	mov.w	r2, #2048	; 0x800
 8002032:	f8a0 280c 	strh.w	r2, [r0, #2060]	; 0x80c
 8002036:	2300      	movs	r3, #0
 8002038:	f100 020c 	add.w	r2, r0, #12
 800203c:	f600 010c 	addw	r1, r0, #2060	; 0x80c
 8002040:	7103      	strb	r3, [r0, #4]
 8002042:	f8c0 2810 	str.w	r2, [r0, #2064]	; 0x810
 8002046:	f8c0 1814 	str.w	r1, [r0, #2068]	; 0x814
 800204a:	f8c0 2818 	str.w	r2, [r0, #2072]	; 0x818
 800204e:	f8c0 281c 	str.w	r2, [r0, #2076]	; 0x81c
 8002052:	f8c0 3a24 	str.w	r3, [r0, #2596]	; 0xa24
 8002056:	f8c0 3a28 	str.w	r3, [r0, #2600]	; 0xa28
 800205a:	4604      	mov	r4, r0
 800205c:	f500 6323 	add.w	r3, r0, #2608	; 0xa30
 8002060:	2100      	movs	r1, #0
 8002062:	2000      	movs	r0, #0
 8002064:	e9c3 0100 	strd	r0, r1, [r3]
 8002068:	f604 2338 	addw	r3, r4, #2616	; 0xa38
 800206c:	f04f 30ff 	mov.w	r0, #4294967295
 8002070:	f04f 31ff 	mov.w	r1, #4294967295
 8002074:	e9c3 0100 	strd	r0, r1, [r3]
 8002078:	2301      	movs	r3, #1
 800207a:	f8c4 4820 	str.w	r4, [r4, #2080]	; 0x820
 800207e:	f884 3a20 	strb.w	r3, [r4, #2592]	; 0xa20
 8002082:	f000 f8e5 	bl	8002250 <_Z10systemInitv>
 8002086:	4620      	mov	r0, r4
 8002088:	bd10      	pop	{r4, pc}
 800208a:	bf00      	nop
 800208c:	08005f24 	.word	0x08005f24
 8002090:	08005f04 	.word	0x08005f04

08002094 <_ZN4core5EventC1Ev>:
 8002094:	b538      	push	{r3, r4, r5, lr}
 8002096:	4b11      	ldr	r3, [pc, #68]	; (80020dc <_ZN4core5EventC1Ev+0x48>)
 8002098:	4d11      	ldr	r5, [pc, #68]	; (80020e0 <_ZN4core5EventC1Ev+0x4c>)
 800209a:	6003      	str	r3, [r0, #0]
 800209c:	782b      	ldrb	r3, [r5, #0]
 800209e:	f3bf 8f5b 	dmb	ish
 80020a2:	07db      	lsls	r3, r3, #31
 80020a4:	4604      	mov	r4, r0
 80020a6:	d40c      	bmi.n	80020c2 <_ZN4core5EventC1Ev+0x2e>
 80020a8:	4628      	mov	r0, r5
 80020aa:	f002 f923 	bl	80042f4 <__cxa_guard_acquire>
 80020ae:	b140      	cbz	r0, 80020c2 <_ZN4core5EventC1Ev+0x2e>
 80020b0:	480c      	ldr	r0, [pc, #48]	; (80020e4 <_ZN4core5EventC1Ev+0x50>)
 80020b2:	f7ff ffb7 	bl	8002024 <_ZN4core6EngineC1Ev>
 80020b6:	4628      	mov	r0, r5
 80020b8:	f002 f928 	bl	800430c <__cxa_guard_release>
 80020bc:	480a      	ldr	r0, [pc, #40]	; (80020e8 <_ZN4core5EventC1Ev+0x54>)
 80020be:	f003 f914 	bl	80052ea <atexit>
 80020c2:	4a08      	ldr	r2, [pc, #32]	; (80020e4 <_ZN4core5EventC1Ev+0x50>)
 80020c4:	f892 3a20 	ldrb.w	r3, [r2, #2592]	; 0xa20
 80020c8:	7123      	strb	r3, [r4, #4]
 80020ca:	eb02 0183 	add.w	r1, r2, r3, lsl #2
 80020ce:	4620      	mov	r0, r4
 80020d0:	f8c1 4820 	str.w	r4, [r1, #2080]	; 0x820
 80020d4:	1c59      	adds	r1, r3, #1
 80020d6:	f882 1a20 	strb.w	r1, [r2, #2592]	; 0xa20
 80020da:	bd38      	pop	{r3, r4, r5, pc}
 80020dc:	08005ef0 	.word	0x08005ef0
 80020e0:	20000a50 	.word	0x20000a50
 80020e4:	20000a58 	.word	0x20000a58
 80020e8:	08001e8f 	.word	0x08001e8f

080020ec <_ZN4core6Engine3runEv>:
 80020ec:	b508      	push	{r3, lr}
 80020ee:	4604      	mov	r4, r0
 80020f0:	f100 0508 	add.w	r5, r0, #8
 80020f4:	f8d4 2818 	ldr.w	r2, [r4, #2072]	; 0x818
 80020f8:	f8d4 381c 	ldr.w	r3, [r4, #2076]	; 0x81c
 80020fc:	429a      	cmp	r2, r3
 80020fe:	d101      	bne.n	8002104 <_ZN4core6Engine3runEv+0x18>
 8002100:	bf30      	wfi
 8002102:	e7f7      	b.n	80020f4 <_ZN4core6Engine3runEv+0x8>
 8002104:	4628      	mov	r0, r5
 8002106:	f7ff ff5c 	bl	8001fc2 <_ZN4core10EventQueue4pop_Ev>
 800210a:	f894 3a20 	ldrb.w	r3, [r4, #2592]	; 0xa20
 800210e:	4283      	cmp	r3, r0
 8002110:	d9f0      	bls.n	80020f4 <_ZN4core6Engine3runEv+0x8>
 8002112:	eb04 0080 	add.w	r0, r4, r0, lsl #2
 8002116:	4629      	mov	r1, r5
 8002118:	f8d0 0820 	ldr.w	r0, [r0, #2080]	; 0x820
 800211c:	6803      	ldr	r3, [r0, #0]
 800211e:	689b      	ldr	r3, [r3, #8]
 8002120:	4798      	blx	r3
 8002122:	e7e7      	b.n	80020f4 <_ZN4core6Engine3runEv+0x8>

08002124 <_ZN4core6Engine13registerTask_EPNS_4TaskE>:
 8002124:	f8d0 3a24 	ldr.w	r3, [r0, #2596]	; 0xa24
 8002128:	600b      	str	r3, [r1, #0]
 800212a:	f8c0 1a24 	str.w	r1, [r0, #2596]	; 0xa24
 800212e:	4770      	bx	lr

08002130 <_ZN4core6Engine10startTask_EPNS_4TaskE>:
 8002130:	b530      	push	{r4, r5, lr}
 8002132:	f8d0 3a24 	ldr.w	r3, [r0, #2596]	; 0xa24
 8002136:	2200      	movs	r2, #0
 8002138:	b153      	cbz	r3, 8002150 <_ZN4core6Engine10startTask_EPNS_4TaskE+0x20>
 800213a:	428b      	cmp	r3, r1
 800213c:	681c      	ldr	r4, [r3, #0]
 800213e:	d114      	bne.n	800216a <_ZN4core6Engine10startTask_EPNS_4TaskE+0x3a>
 8002140:	b9b2      	cbnz	r2, 8002170 <_ZN4core6Engine10startTask_EPNS_4TaskE+0x40>
 8002142:	f8c0 4a24 	str.w	r4, [r0, #2596]	; 0xa24
 8002146:	f8d0 3a28 	ldr.w	r3, [r0, #2600]	; 0xa28
 800214a:	600b      	str	r3, [r1, #0]
 800214c:	f8c0 1a28 	str.w	r1, [r0, #2600]	; 0xa28
 8002150:	f600 2038 	addw	r0, r0, #2616	; 0xa38
 8002154:	e9d1 2302 	ldrd	r2, r3, [r1, #8]
 8002158:	e9d0 4500 	ldrd	r4, r5, [r0]
 800215c:	42ab      	cmp	r3, r5
 800215e:	bf08      	it	eq
 8002160:	42a2      	cmpeq	r2, r4
 8002162:	bf38      	it	cc
 8002164:	e9c0 2300 	strdcc	r2, r3, [r0]
 8002168:	bd30      	pop	{r4, r5, pc}
 800216a:	461a      	mov	r2, r3
 800216c:	4623      	mov	r3, r4
 800216e:	e7e3      	b.n	8002138 <_ZN4core6Engine10startTask_EPNS_4TaskE+0x8>
 8002170:	6014      	str	r4, [r2, #0]
 8002172:	e7e8      	b.n	8002146 <_ZN4core6Engine10startTask_EPNS_4TaskE+0x16>

08002174 <_ZN4core6Engine9stopTask_EPNS_4TaskE>:
 8002174:	b510      	push	{r4, lr}
 8002176:	f8d0 3a28 	ldr.w	r3, [r0, #2600]	; 0xa28
 800217a:	2200      	movs	r2, #0
 800217c:	b153      	cbz	r3, 8002194 <_ZN4core6Engine9stopTask_EPNS_4TaskE+0x20>
 800217e:	428b      	cmp	r3, r1
 8002180:	681c      	ldr	r4, [r3, #0]
 8002182:	d108      	bne.n	8002196 <_ZN4core6Engine9stopTask_EPNS_4TaskE+0x22>
 8002184:	b952      	cbnz	r2, 800219c <_ZN4core6Engine9stopTask_EPNS_4TaskE+0x28>
 8002186:	f8c0 4a28 	str.w	r4, [r0, #2600]	; 0xa28
 800218a:	f8d0 3a24 	ldr.w	r3, [r0, #2596]	; 0xa24
 800218e:	600b      	str	r3, [r1, #0]
 8002190:	f8c0 1a24 	str.w	r1, [r0, #2596]	; 0xa24
 8002194:	bd10      	pop	{r4, pc}
 8002196:	461a      	mov	r2, r3
 8002198:	4623      	mov	r3, r4
 800219a:	e7ef      	b.n	800217c <_ZN4core6Engine9stopTask_EPNS_4TaskE+0x8>
 800219c:	6014      	str	r4, [r2, #0]
 800219e:	e7f4      	b.n	800218a <_ZN4core6Engine9stopTask_EPNS_4TaskE+0x16>

080021a0 <__tcf_0>:
 80021a0:	4770      	bx	lr
	...

080021a4 <SysTick_Handler>:
 80021a4:	b570      	push	{r4, r5, r6, lr}
 80021a6:	4e27      	ldr	r6, [pc, #156]	; (8002244 <SysTick_Handler+0xa0>)
 80021a8:	7833      	ldrb	r3, [r6, #0]
 80021aa:	f3bf 8f5b 	dmb	ish
 80021ae:	07db      	lsls	r3, r3, #31
 80021b0:	d40c      	bmi.n	80021cc <SysTick_Handler+0x28>
 80021b2:	4630      	mov	r0, r6
 80021b4:	f002 f89e 	bl	80042f4 <__cxa_guard_acquire>
 80021b8:	b140      	cbz	r0, 80021cc <SysTick_Handler+0x28>
 80021ba:	4823      	ldr	r0, [pc, #140]	; (8002248 <SysTick_Handler+0xa4>)
 80021bc:	f7ff ff32 	bl	8002024 <_ZN4core6EngineC1Ev>
 80021c0:	4630      	mov	r0, r6
 80021c2:	f002 f8a3 	bl	800430c <__cxa_guard_release>
 80021c6:	4821      	ldr	r0, [pc, #132]	; (800224c <SysTick_Handler+0xa8>)
 80021c8:	f003 f88f 	bl	80052ea <atexit>
 80021cc:	491e      	ldr	r1, [pc, #120]	; (8002248 <SysTick_Handler+0xa4>)
 80021ce:	f501 6023 	add.w	r0, r1, #2608	; 0xa30
 80021d2:	e9d0 2300 	ldrd	r2, r3, [r0]
 80021d6:	1c54      	adds	r4, r2, #1
 80021d8:	f143 0500 	adc.w	r5, r3, #0
 80021dc:	f601 2338 	addw	r3, r1, #2616	; 0xa38
 80021e0:	e9d3 2300 	ldrd	r2, r3, [r3]
 80021e4:	429d      	cmp	r5, r3
 80021e6:	bf08      	it	eq
 80021e8:	4294      	cmpeq	r4, r2
 80021ea:	e9c0 4500 	strd	r4, r5, [r0]
 80021ee:	460b      	mov	r3, r1
 80021f0:	d326      	bcc.n	8002240 <SysTick_Handler+0x9c>
 80021f2:	f8b1 280c 	ldrh.w	r2, [r1, #2060]	; 0x80c
 80021f6:	f8d1 181c 	ldr.w	r1, [r1, #2076]	; 0x81c
 80021fa:	fa11 f282 	uxtah	r2, r1, r2
 80021fe:	f8d3 1818 	ldr.w	r1, [r3, #2072]	; 0x818
 8002202:	1a52      	subs	r2, r2, r1
 8002204:	f8b3 180c 	ldrh.w	r1, [r3, #2060]	; 0x80c
 8002208:	b292      	uxth	r2, r2
 800220a:	b289      	uxth	r1, r1
 800220c:	428a      	cmp	r2, r1
 800220e:	bf82      	ittt	hi
 8002210:	f8b3 180c 	ldrhhi.w	r1, [r3, #2060]	; 0x80c
 8002214:	1a52      	subhi	r2, r2, r1
 8002216:	b292      	uxthhi	r2, r2
 8002218:	b192      	cbz	r2, 8002240 <SysTick_Handler+0x9c>
 800221a:	7919      	ldrb	r1, [r3, #4]
 800221c:	b672      	cpsid	i
 800221e:	f8d3 2818 	ldr.w	r2, [r3, #2072]	; 0x818
 8002222:	7011      	strb	r1, [r2, #0]
 8002224:	f8d3 2818 	ldr.w	r2, [r3, #2072]	; 0x818
 8002228:	f8d3 1814 	ldr.w	r1, [r3, #2068]	; 0x814
 800222c:	3201      	adds	r2, #1
 800222e:	428a      	cmp	r2, r1
 8002230:	f8c3 2818 	str.w	r2, [r3, #2072]	; 0x818
 8002234:	bf04      	itt	eq
 8002236:	f8d3 2810 	ldreq.w	r2, [r3, #2064]	; 0x810
 800223a:	f8c3 2818 	streq.w	r2, [r3, #2072]	; 0x818
 800223e:	b662      	cpsie	i
 8002240:	bd70      	pop	{r4, r5, r6, pc}
 8002242:	bf00      	nop
 8002244:	20000a50 	.word	0x20000a50
 8002248:	20000a58 	.word	0x20000a58
 800224c:	080021a1 	.word	0x080021a1

08002250 <_Z10systemInitv>:
 8002250:	b508      	push	{r3, lr}
 8002252:	f001 fa77 	bl	8003744 <SystemClock_Config>
 8002256:	f001 fa69 	bl	800372c <MX_GPIO_Init>
 800225a:	4a03      	ldr	r2, [pc, #12]	; (8002268 <_Z10systemInitv+0x18>)
 800225c:	6813      	ldr	r3, [r2, #0]
 800225e:	f043 0302 	orr.w	r3, r3, #2
 8002262:	6013      	str	r3, [r2, #0]
 8002264:	bd08      	pop	{r3, pc}
 8002266:	bf00      	nop
 8002268:	e000e010 	.word	0xe000e010

0800226c <_ZN4core4TaskC1EPNS_9ComponentEMS1_FvvE>:
 800226c:	b513      	push	{r0, r1, r4, lr}
 800226e:	4604      	mov	r4, r0
 8002270:	a802      	add	r0, sp, #8
 8002272:	e900 000c 	stmdb	r0, {r2, r3}
 8002276:	2000      	movs	r0, #0
 8002278:	e9c4 0104 	strd	r0, r1, [r4, #16]
 800227c:	f104 0118 	add.w	r1, r4, #24
 8002280:	6020      	str	r0, [r4, #0]
 8002282:	e881 000c 	stmia.w	r1, {r2, r3}
 8002286:	f7ff fb93 	bl	80019b0 <_ZN4core6Engine8instanceEv>
 800228a:	4621      	mov	r1, r4
 800228c:	f7ff ff4a 	bl	8002124 <_ZN4core6Engine13registerTask_EPNS_4TaskE>
 8002290:	4620      	mov	r0, r4
 8002292:	b002      	add	sp, #8
 8002294:	bd10      	pop	{r4, pc}

08002296 <_ZN4core4Task5startEml>:
 8002296:	b570      	push	{r4, r5, r6, lr}
 8002298:	4604      	mov	r4, r0
 800229a:	460d      	mov	r5, r1
 800229c:	4616      	mov	r6, r2
 800229e:	f7ff fb87 	bl	80019b0 <_ZN4core6Engine8instanceEv>
 80022a2:	f500 6323 	add.w	r3, r0, #2608	; 0xa30
 80022a6:	e9d3 2300 	ldrd	r2, r3, [r3]
 80022aa:	1952      	adds	r2, r2, r5
 80022ac:	f143 0300 	adc.w	r3, r3, #0
 80022b0:	e9c4 2302 	strd	r2, r3, [r4, #8]
 80022b4:	6065      	str	r5, [r4, #4]
 80022b6:	6126      	str	r6, [r4, #16]
 80022b8:	4621      	mov	r1, r4
 80022ba:	e8bd 4070 	ldmia.w	sp!, {r4, r5, r6, lr}
 80022be:	f7ff bf37 	b.w	8002130 <_ZN4core6Engine10startTask_EPNS_4TaskE>

080022c2 <_ZN4core4Task4stopEv>:
 80022c2:	b510      	push	{r4, lr}
 80022c4:	2300      	movs	r3, #0
 80022c6:	4604      	mov	r4, r0
 80022c8:	6103      	str	r3, [r0, #16]
 80022ca:	f7ff fb71 	bl	80019b0 <_ZN4core6Engine8instanceEv>
 80022ce:	4621      	mov	r1, r4
 80022d0:	e8bd 4010 	ldmia.w	sp!, {r4, lr}
 80022d4:	f7ff bf4e 	b.w	8002174 <_ZN4core6Engine9stopTask_EPNS_4TaskE>

080022d8 <_ZN4core4Task4run_Ev>:
 80022d8:	6903      	ldr	r3, [r0, #16]
 80022da:	3b01      	subs	r3, #1
 80022dc:	b570      	push	{r4, r5, r6, lr}
 80022de:	4604      	mov	r4, r0
 80022e0:	6103      	str	r3, [r0, #16]
 80022e2:	b993      	cbnz	r3, 800230a <_ZN4core4Task4run_Ev+0x32>
 80022e4:	f7ff fb64 	bl	80019b0 <_ZN4core6Engine8instanceEv>
 80022e8:	4621      	mov	r1, r4
 80022ea:	f7ff ff43 	bl	8002174 <_ZN4core6Engine9stopTask_EPNS_4TaskE>
 80022ee:	69e2      	ldr	r2, [r4, #28]
 80022f0:	6961      	ldr	r1, [r4, #20]
 80022f2:	69a3      	ldr	r3, [r4, #24]
 80022f4:	1055      	asrs	r5, r2, #1
 80022f6:	eb01 0062 	add.w	r0, r1, r2, asr #1
 80022fa:	07d2      	lsls	r2, r2, #31
 80022fc:	bf48      	it	mi
 80022fe:	594a      	ldrmi	r2, [r1, r5]
 8002300:	e8bd 4070 	ldmia.w	sp!, {r4, r5, r6, lr}
 8002304:	bf48      	it	mi
 8002306:	58d3      	ldrmi	r3, [r2, r3]
 8002308:	4718      	bx	r3
 800230a:	6842      	ldr	r2, [r0, #4]
 800230c:	e9d0 0102 	ldrd	r0, r1, [r0, #8]
 8002310:	1880      	adds	r0, r0, r2
 8002312:	f141 0100 	adc.w	r1, r1, #0
 8002316:	2b00      	cmp	r3, #0
 8002318:	bfb8      	it	lt
 800231a:	f04f 33ff 	movlt.w	r3, #4294967295
 800231e:	e9c4 0102 	strd	r0, r1, [r4, #8]
 8002322:	bfb8      	it	lt
 8002324:	6123      	strlt	r3, [r4, #16]
 8002326:	e7e2      	b.n	80022ee <_ZN4core4Task4run_Ev+0x16>

08002328 <_ZN5esp326Driver7StartupEv>:
 8002328:	b57f      	push	{r0, r1, r2, r3, r4, r5, r6, lr}
 800232a:	7d03      	ldrb	r3, [r0, #20]
 800232c:	2bfe      	cmp	r3, #254	; 0xfe
 800232e:	4604      	mov	r4, r0
 8002330:	d105      	bne.n	800233e <_ZN5esp326Driver7StartupEv+0x16>
 8002332:	f04f 32ff 	mov.w	r2, #4294967295
 8002336:	2164      	movs	r1, #100	; 0x64
 8002338:	3030      	adds	r0, #48	; 0x30
 800233a:	f7ff ffac 	bl	8002296 <_ZN4core4Task5startEml>
 800233e:	6823      	ldr	r3, [r4, #0]
 8002340:	4a10      	ldr	r2, [pc, #64]	; (8002384 <_ZN5esp326Driver7StartupEv+0x5c>)
 8002342:	68de      	ldr	r6, [r3, #12]
 8002344:	4b0f      	ldr	r3, [pc, #60]	; (8002384 <_ZN5esp326Driver7StartupEv+0x5c>)
 8002346:	9300      	str	r3, [sp, #0]
 8002348:	2500      	movs	r5, #0
 800234a:	462b      	mov	r3, r5
 800234c:	4629      	mov	r1, r5
 800234e:	9501      	str	r5, [sp, #4]
 8002350:	4620      	mov	r0, r4
 8002352:	47b0      	blx	r6
 8002354:	6823      	ldr	r3, [r4, #0]
 8002356:	68de      	ldr	r6, [r3, #12]
 8002358:	4b0b      	ldr	r3, [pc, #44]	; (8002388 <_ZN5esp326Driver7StartupEv+0x60>)
 800235a:	e9cd 3502 	strd	r3, r5, [sp, #8]
 800235e:	ab04      	add	r3, sp, #16
 8002360:	e913 000c 	ldmdb	r3, {r2, r3}
 8002364:	2103      	movs	r1, #3
 8002366:	4620      	mov	r0, r4
 8002368:	47b0      	blx	r6
 800236a:	7d23      	ldrb	r3, [r4, #20]
 800236c:	2bff      	cmp	r3, #255	; 0xff
 800236e:	d106      	bne.n	800237e <_ZN5esp326Driver7StartupEv+0x56>
 8002370:	f104 0030 	add.w	r0, r4, #48	; 0x30
 8002374:	b004      	add	sp, #16
 8002376:	e8bd 4070 	ldmia.w	sp!, {r4, r5, r6, lr}
 800237a:	f7ff bfa2 	b.w	80022c2 <_ZN4core4Task4stopEv>
 800237e:	b004      	add	sp, #16
 8002380:	bd70      	pop	{r4, r5, r6, pc}
 8002382:	bf00      	nop
 8002384:	080024ed 	.word	0x080024ed
 8002388:	08002449 	.word	0x08002449

0800238c <_ZN5esp326Driver7SendingEv>:
 800238c:	b5f0      	push	{r4, r5, r6, r7, lr}
 800238e:	7d03      	ldrb	r3, [r0, #20]
 8002390:	2bfe      	cmp	r3, #254	; 0xfe
 8002392:	b087      	sub	sp, #28
 8002394:	4604      	mov	r4, r0
 8002396:	d108      	bne.n	80023aa <_ZN5esp326Driver7SendingEv+0x1e>
 8002398:	f000 fa50 	bl	800283c <_ZN5esp326Driver11popCommand_Ev>
 800239c:	2201      	movs	r2, #1
 800239e:	f44f 61fa 	mov.w	r1, #2000	; 0x7d0
 80023a2:	f104 0030 	add.w	r0, r4, #48	; 0x30
 80023a6:	f7ff ff76 	bl	8002296 <_ZN4core4Task5startEml>
 80023aa:	6823      	ldr	r3, [r4, #0]
 80023ac:	4a10      	ldr	r2, [pc, #64]	; (80023f0 <_ZN5esp326Driver7SendingEv+0x64>)
 80023ae:	68de      	ldr	r6, [r3, #12]
 80023b0:	4b0f      	ldr	r3, [pc, #60]	; (80023f0 <_ZN5esp326Driver7SendingEv+0x64>)
 80023b2:	9300      	str	r3, [sp, #0]
 80023b4:	2500      	movs	r5, #0
 80023b6:	462b      	mov	r3, r5
 80023b8:	9501      	str	r5, [sp, #4]
 80023ba:	2104      	movs	r1, #4
 80023bc:	4620      	mov	r0, r4
 80023be:	47b0      	blx	r6
 80023c0:	6823      	ldr	r3, [r4, #0]
 80023c2:	4e0c      	ldr	r6, [pc, #48]	; (80023f4 <_ZN5esp326Driver7SendingEv+0x68>)
 80023c4:	68df      	ldr	r7, [r3, #12]
 80023c6:	4632      	mov	r2, r6
 80023c8:	462b      	mov	r3, r5
 80023ca:	4629      	mov	r1, r5
 80023cc:	e9cd 6502 	strd	r6, r5, [sp, #8]
 80023d0:	4620      	mov	r0, r4
 80023d2:	47b8      	blx	r7
 80023d4:	6823      	ldr	r3, [r4, #0]
 80023d6:	e9cd 6504 	strd	r6, r5, [sp, #16]
 80023da:	68df      	ldr	r7, [r3, #12]
 80023dc:	ab06      	add	r3, sp, #24
 80023de:	e913 000c 	ldmdb	r3, {r2, r3}
 80023e2:	2103      	movs	r1, #3
 80023e4:	4620      	mov	r0, r4
 80023e6:	46bc      	mov	ip, r7
 80023e8:	b007      	add	sp, #28
 80023ea:	e8bd 40f0 	ldmia.w	sp!, {r4, r5, r6, r7, lr}
 80023ee:	4760      	bx	ip
 80023f0:	08002591 	.word	0x08002591
 80023f4:	08002449 	.word	0x08002449

080023f8 <_ZN4core10EventQueue4postEh>:
 80023f8:	f8b0 3804 	ldrh.w	r3, [r0, #2052]	; 0x804
 80023fc:	f8d0 2814 	ldr.w	r2, [r0, #2068]	; 0x814
 8002400:	fa12 f383 	uxtah	r3, r2, r3
 8002404:	f8d0 2810 	ldr.w	r2, [r0, #2064]	; 0x810
 8002408:	1a9b      	subs	r3, r3, r2
 800240a:	f8b0 2804 	ldrh.w	r2, [r0, #2052]	; 0x804
 800240e:	b29b      	uxth	r3, r3
 8002410:	b292      	uxth	r2, r2
 8002412:	429a      	cmp	r2, r3
 8002414:	bf3e      	ittt	cc
 8002416:	f8b0 2804 	ldrhcc.w	r2, [r0, #2052]	; 0x804
 800241a:	1a9b      	subcc	r3, r3, r2
 800241c:	b29b      	uxthcc	r3, r3
 800241e:	b18b      	cbz	r3, 8002444 <_ZN4core10EventQueue4postEh+0x4c>
 8002420:	b672      	cpsid	i
 8002422:	f8d0 3810 	ldr.w	r3, [r0, #2064]	; 0x810
 8002426:	7019      	strb	r1, [r3, #0]
 8002428:	f8d0 3810 	ldr.w	r3, [r0, #2064]	; 0x810
 800242c:	f8d0 280c 	ldr.w	r2, [r0, #2060]	; 0x80c
 8002430:	3301      	adds	r3, #1
 8002432:	4293      	cmp	r3, r2
 8002434:	f8c0 3810 	str.w	r3, [r0, #2064]	; 0x810
 8002438:	bf04      	itt	eq
 800243a:	f8d0 3808 	ldreq.w	r3, [r0, #2056]	; 0x808
 800243e:	f8c0 3810 	streq.w	r3, [r0, #2064]	; 0x810
 8002442:	b662      	cpsie	i
 8002444:	4770      	bx	lr
	...

08002448 <_ZN5esp326Driver9RebootingEv>:
 8002448:	b537      	push	{r0, r1, r2, r4, r5, lr}
 800244a:	7d03      	ldrb	r3, [r0, #20]
 800244c:	2bfe      	cmp	r3, #254	; 0xfe
 800244e:	4604      	mov	r4, r0
 8002450:	d118      	bne.n	8002484 <_ZN5esp326Driver9RebootingEv+0x3c>
 8002452:	f8d0 2874 	ldr.w	r2, [r0, #2164]	; 0x874
 8002456:	f8c0 287c 	str.w	r2, [r0, #2172]	; 0x87c
 800245a:	f8c0 2880 	str.w	r2, [r0, #2176]	; 0x880
 800245e:	f241 028c 	movw	r2, #4236	; 0x108c
 8002462:	2300      	movs	r3, #0
 8002464:	4917      	ldr	r1, [pc, #92]	; (80024c4 <_ZN5esp326Driver9RebootingEv+0x7c>)
 8002466:	f8c0 3884 	str.w	r3, [r0, #2180]	; 0x884
 800246a:	f8c0 3888 	str.w	r3, [r0, #2184]	; 0x888
 800246e:	5081      	str	r1, [r0, r2]
 8002470:	f241 0290 	movw	r2, #4240	; 0x1090
 8002474:	f44f 71fa 	mov.w	r1, #500	; 0x1f4
 8002478:	5083      	str	r3, [r0, r2]
 800247a:	f04f 32ff 	mov.w	r2, #4294967295
 800247e:	3030      	adds	r0, #48	; 0x30
 8002480:	f7ff ff09 	bl	8002296 <_ZN4core4Task5startEml>
 8002484:	6823      	ldr	r3, [r4, #0]
 8002486:	2100      	movs	r1, #0
 8002488:	68dd      	ldr	r5, [r3, #12]
 800248a:	4b0f      	ldr	r3, [pc, #60]	; (80024c8 <_ZN5esp326Driver9RebootingEv+0x80>)
 800248c:	9300      	str	r3, [sp, #0]
 800248e:	9101      	str	r1, [sp, #4]
 8002490:	ab02      	add	r3, sp, #8
 8002492:	e913 000c 	ldmdb	r3, {r2, r3}
 8002496:	4620      	mov	r0, r4
 8002498:	47a8      	blx	r5
 800249a:	7d23      	ldrb	r3, [r4, #20]
 800249c:	2bff      	cmp	r3, #255	; 0xff
 800249e:	d10e      	bne.n	80024be <_ZN5esp326Driver9RebootingEv+0x76>
 80024a0:	6ea5      	ldr	r5, [r4, #104]	; 0x68
 80024a2:	b12d      	cbz	r5, 80024b0 <_ZN5esp326Driver9RebootingEv+0x68>
 80024a4:	f7ff fa84 	bl	80019b0 <_ZN4core6Engine8instanceEv>
 80024a8:	7929      	ldrb	r1, [r5, #4]
 80024aa:	3008      	adds	r0, #8
 80024ac:	f7ff ffa4 	bl	80023f8 <_ZN4core10EventQueue4postEh>
 80024b0:	f104 0030 	add.w	r0, r4, #48	; 0x30
 80024b4:	b003      	add	sp, #12
 80024b6:	e8bd 4030 	ldmia.w	sp!, {r4, r5, lr}
 80024ba:	f7ff bf02 	b.w	80022c2 <_ZN4core4Task4stopEv>
 80024be:	b003      	add	sp, #12
 80024c0:	bd30      	pop	{r4, r5, pc}
 80024c2:	bf00      	nop
 80024c4:	08002701 	.word	0x08002701
 80024c8:	08002329 	.word	0x08002329

080024cc <_ZN4core10FixedEventIhE4postERKh.isra.0.constprop.0>:
 80024cc:	b537      	push	{r0, r1, r2, r4, r5, lr}
 80024ce:	4604      	mov	r4, r0
 80024d0:	9101      	str	r1, [sp, #4]
 80024d2:	f7ff fa6d 	bl	80019b0 <_ZN4core6Engine8instanceEv>
 80024d6:	6883      	ldr	r3, [r0, #8]
 80024d8:	9a01      	ldr	r2, [sp, #4]
 80024da:	681d      	ldr	r5, [r3, #0]
 80024dc:	7821      	ldrb	r1, [r4, #0]
 80024de:	2301      	movs	r3, #1
 80024e0:	3008      	adds	r0, #8
 80024e2:	46ac      	mov	ip, r5
 80024e4:	b003      	add	sp, #12
 80024e6:	e8bd 4030 	ldmia.w	sp!, {r4, r5, lr}
 80024ea:	4760      	bx	ip

080024ec <_ZN5esp326Driver5ReadyEv>:
 80024ec:	b5f0      	push	{r4, r5, r6, r7, lr}
 80024ee:	7d03      	ldrb	r3, [r0, #20]
 80024f0:	b085      	sub	sp, #20
 80024f2:	2bfe      	cmp	r3, #254	; 0xfe
 80024f4:	4604      	mov	r4, r0
 80024f6:	ad02      	add	r5, sp, #8
 80024f8:	d116      	bne.n	8002528 <_ZN5esp326Driver5ReadyEv+0x3c>
 80024fa:	f8d0 2880 	ldr.w	r2, [r0, #2176]	; 0x880
 80024fe:	f8d0 387c 	ldr.w	r3, [r0, #2172]	; 0x87c
 8002502:	429a      	cmp	r2, r3
 8002504:	d010      	beq.n	8002528 <_ZN5esp326Driver5ReadyEv+0x3c>
 8002506:	f241 038c 	movw	r3, #4236	; 0x108c
 800250a:	58c2      	ldr	r2, [r0, r3]
 800250c:	4b1d      	ldr	r3, [pc, #116]	; (8002584 <_ZN5esp326Driver5ReadyEv+0x98>)
 800250e:	429a      	cmp	r2, r3
 8002510:	d10a      	bne.n	8002528 <_ZN5esp326Driver5ReadyEv+0x3c>
 8002512:	f241 0390 	movw	r3, #4240	; 0x1090
 8002516:	58c3      	ldr	r3, [r0, r3]
 8002518:	b933      	cbnz	r3, 8002528 <_ZN5esp326Driver5ReadyEv+0x3c>
 800251a:	2301      	movs	r3, #1
 800251c:	4629      	mov	r1, r5
 800251e:	301c      	adds	r0, #28
 8002520:	f88d 3008 	strb.w	r3, [sp, #8]
 8002524:	f7ff ffd2 	bl	80024cc <_ZN4core10FixedEventIhE4postERKh.isra.0.constprop.0>
 8002528:	4623      	mov	r3, r4
 800252a:	2102      	movs	r1, #2
 800252c:	f853 2b0c 	ldr.w	r2, [r3], #12
 8002530:	4620      	mov	r0, r4
 8002532:	68d6      	ldr	r6, [r2, #12]
 8002534:	cb0c      	ldmia	r3, {r2, r3}
 8002536:	47b0      	blx	r6
 8002538:	b168      	cbz	r0, 8002556 <_ZN5esp326Driver5ReadyEv+0x6a>
 800253a:	f8d4 287c 	ldr.w	r2, [r4, #2172]	; 0x87c
 800253e:	f8d4 3880 	ldr.w	r3, [r4, #2176]	; 0x880
 8002542:	429a      	cmp	r2, r3
 8002544:	d007      	beq.n	8002556 <_ZN5esp326Driver5ReadyEv+0x6a>
 8002546:	2301      	movs	r3, #1
 8002548:	4629      	mov	r1, r5
 800254a:	f104 001c 	add.w	r0, r4, #28
 800254e:	f88d 3008 	strb.w	r3, [sp, #8]
 8002552:	f7ff ffbb 	bl	80024cc <_ZN4core10FixedEventIhE4postERKh.isra.0.constprop.0>
 8002556:	6823      	ldr	r3, [r4, #0]
 8002558:	4a0b      	ldr	r2, [pc, #44]	; (8002588 <_ZN5esp326Driver5ReadyEv+0x9c>)
 800255a:	68df      	ldr	r7, [r3, #12]
 800255c:	4b0a      	ldr	r3, [pc, #40]	; (8002588 <_ZN5esp326Driver5ReadyEv+0x9c>)
 800255e:	9300      	str	r3, [sp, #0]
 8002560:	2600      	movs	r6, #0
 8002562:	4633      	mov	r3, r6
 8002564:	9601      	str	r6, [sp, #4]
 8002566:	2101      	movs	r1, #1
 8002568:	4620      	mov	r0, r4
 800256a:	47b8      	blx	r7
 800256c:	6823      	ldr	r3, [r4, #0]
 800256e:	68df      	ldr	r7, [r3, #12]
 8002570:	4b06      	ldr	r3, [pc, #24]	; (800258c <_ZN5esp326Driver5ReadyEv+0xa0>)
 8002572:	e9cd 3602 	strd	r3, r6, [sp, #8]
 8002576:	2103      	movs	r1, #3
 8002578:	e895 000c 	ldmia.w	r5, {r2, r3}
 800257c:	4620      	mov	r0, r4
 800257e:	47b8      	blx	r7
 8002580:	b005      	add	sp, #20
 8002582:	bdf0      	pop	{r4, r5, r6, r7, pc}
 8002584:	08002701 	.word	0x08002701
 8002588:	0800238d 	.word	0x0800238d
 800258c:	08002449 	.word	0x08002449

08002590 <_ZN5esp326Driver13ReceivingDataEv>:
 8002590:	b570      	push	{r4, r5, r6, lr}
 8002592:	7d03      	ldrb	r3, [r0, #20]
 8002594:	2bfe      	cmp	r3, #254	; 0xfe
 8002596:	b086      	sub	sp, #24
 8002598:	4604      	mov	r4, r0
 800259a:	d105      	bne.n	80025a8 <_ZN5esp326Driver13ReceivingDataEv+0x18>
 800259c:	2201      	movs	r2, #1
 800259e:	f640 31b8 	movw	r1, #3000	; 0xbb8
 80025a2:	3030      	adds	r0, #48	; 0x30
 80025a4:	f7ff fe77 	bl	8002296 <_ZN4core4Task5startEml>
 80025a8:	6823      	ldr	r3, [r4, #0]
 80025aa:	4d1f      	ldr	r5, [pc, #124]	; (8002628 <_ZN5esp326Driver13ReceivingDataEv+0x98>)
 80025ac:	68de      	ldr	r6, [r3, #12]
 80025ae:	9500      	str	r5, [sp, #0]
 80025b0:	2300      	movs	r3, #0
 80025b2:	9301      	str	r3, [sp, #4]
 80025b4:	462a      	mov	r2, r5
 80025b6:	2106      	movs	r1, #6
 80025b8:	4620      	mov	r0, r4
 80025ba:	47b0      	blx	r6
 80025bc:	b190      	cbz	r0, 80025e4 <_ZN5esp326Driver13ReceivingDataEv+0x54>
 80025be:	f241 03f5 	movw	r3, #4341	; 0x10f5
 80025c2:	5ce3      	ldrb	r3, [r4, r3]
 80025c4:	2b17      	cmp	r3, #23
 80025c6:	d80d      	bhi.n	80025e4 <_ZN5esp326Driver13ReceivingDataEv+0x54>
 80025c8:	f203 4324 	addw	r3, r3, #1060	; 0x424
 80025cc:	eb04 0083 	add.w	r0, r4, r3, lsl #2
 80025d0:	f241 01f6 	movw	r1, #4342	; 0x10f6
 80025d4:	f8b4 3886 	ldrh.w	r3, [r4, #2182]	; 0x886
 80025d8:	5c61      	ldrb	r1, [r4, r1]
 80025da:	6840      	ldr	r0, [r0, #4]
 80025dc:	f604 028c 	addw	r2, r4, #2188	; 0x88c
 80025e0:	f000 fa7c 	bl	8002adc <_ZN5esp328EspEvent7executeEbPht>
 80025e4:	6823      	ldr	r3, [r4, #0]
 80025e6:	9502      	str	r5, [sp, #8]
 80025e8:	2100      	movs	r1, #0
 80025ea:	68de      	ldr	r6, [r3, #12]
 80025ec:	9103      	str	r1, [sp, #12]
 80025ee:	460b      	mov	r3, r1
 80025f0:	462a      	mov	r2, r5
 80025f2:	4620      	mov	r0, r4
 80025f4:	47b0      	blx	r6
 80025f6:	b138      	cbz	r0, 8002608 <_ZN5esp326Driver13ReceivingDataEv+0x78>
 80025f8:	6e65      	ldr	r5, [r4, #100]	; 0x64
 80025fa:	b12d      	cbz	r5, 8002608 <_ZN5esp326Driver13ReceivingDataEv+0x78>
 80025fc:	f7ff f9d8 	bl	80019b0 <_ZN4core6Engine8instanceEv>
 8002600:	7929      	ldrb	r1, [r5, #4]
 8002602:	3008      	adds	r0, #8
 8002604:	f7ff fef8 	bl	80023f8 <_ZN4core10EventQueue4postEh>
 8002608:	6823      	ldr	r3, [r4, #0]
 800260a:	68dd      	ldr	r5, [r3, #12]
 800260c:	4b07      	ldr	r3, [pc, #28]	; (800262c <_ZN5esp326Driver13ReceivingDataEv+0x9c>)
 800260e:	9304      	str	r3, [sp, #16]
 8002610:	2300      	movs	r3, #0
 8002612:	9305      	str	r3, [sp, #20]
 8002614:	ab06      	add	r3, sp, #24
 8002616:	e913 000c 	ldmdb	r3, {r2, r3}
 800261a:	2103      	movs	r1, #3
 800261c:	4620      	mov	r0, r4
 800261e:	46ac      	mov	ip, r5
 8002620:	b006      	add	sp, #24
 8002622:	e8bd 4070 	ldmia.w	sp!, {r4, r5, r6, lr}
 8002626:	4760      	bx	ip
 8002628:	080024ed 	.word	0x080024ed
 800262c:	08002449 	.word	0x08002449

08002630 <_ZN5esp326DriverD1Ev>:
 8002630:	4770      	bx	lr
	...

08002634 <_ZN5esp326Driver4initEv>:
 8002634:	b513      	push	{r0, r1, r4, lr}
 8002636:	4604      	mov	r4, r0
 8002638:	f000 fa60 	bl	8002afc <_ZN5esp323HAL4initEv>
 800263c:	4a06      	ldr	r2, [pc, #24]	; (8002658 <_ZN5esp326Driver4initEv+0x24>)
 800263e:	9200      	str	r2, [sp, #0]
 8002640:	2200      	movs	r2, #0
 8002642:	9201      	str	r2, [sp, #4]
 8002644:	6823      	ldr	r3, [r4, #0]
 8002646:	aa02      	add	r2, sp, #8
 8002648:	e912 0006 	ldmdb	r2, {r1, r2}
 800264c:	691b      	ldr	r3, [r3, #16]
 800264e:	4620      	mov	r0, r4
 8002650:	b002      	add	sp, #8
 8002652:	e8bd 4010 	ldmia.w	sp!, {r4, lr}
 8002656:	4718      	bx	r3
 8002658:	08002329 	.word	0x08002329

0800265c <_ZN5esp326DriverD0Ev>:
 800265c:	b510      	push	{r4, lr}
 800265e:	f241 01f8 	movw	r1, #4344	; 0x10f8
 8002662:	4604      	mov	r4, r0
 8002664:	f001 fe44 	bl	80042f0 <_ZdlPvj>
 8002668:	4620      	mov	r0, r4
 800266a:	bd10      	pop	{r4, pc}

0800266c <_ZN4core10FixedEventIhE4postERKh.isra.0>:
 800266c:	b537      	push	{r0, r1, r2, r4, r5, lr}
 800266e:	4604      	mov	r4, r0
 8002670:	9101      	str	r1, [sp, #4]
 8002672:	f7ff f99d 	bl	80019b0 <_ZN4core6Engine8instanceEv>
 8002676:	6883      	ldr	r3, [r0, #8]
 8002678:	9a01      	ldr	r2, [sp, #4]
 800267a:	681d      	ldr	r5, [r3, #0]
 800267c:	7821      	ldrb	r1, [r4, #0]
 800267e:	2301      	movs	r3, #1
 8002680:	3008      	adds	r0, #8
 8002682:	46ac      	mov	ip, r5
 8002684:	b003      	add	sp, #12
 8002686:	e8bd 4030 	ldmia.w	sp!, {r4, r5, lr}
 800268a:	4760      	bx	ip

0800268c <_ZN5esp326Driver17receiveMsgServer_Eh>:
 800268c:	f8b0 3884 	ldrh.w	r3, [r0, #2180]	; 0x884
 8002690:	18c2      	adds	r2, r0, r3
 8002692:	b573      	push	{r0, r1, r4, r5, r6, lr}
 8002694:	2b02      	cmp	r3, #2
 8002696:	f103 0501 	add.w	r5, r3, #1
 800269a:	4604      	mov	r4, r0
 800269c:	f882 188c 	strb.w	r1, [r2, #2188]	; 0x88c
 80026a0:	b2ad      	uxth	r5, r5
 80026a2:	d928      	bls.n	80026f6 <_ZN5esp326Driver17receiveMsgServer_Eh+0x6a>
 80026a4:	f892 388b 	ldrb.w	r3, [r2, #2187]	; 0x88b
 80026a8:	2b0d      	cmp	r3, #13
 80026aa:	d124      	bne.n	80026f6 <_ZN5esp326Driver17receiveMsgServer_Eh+0x6a>
 80026ac:	290a      	cmp	r1, #10
 80026ae:	d122      	bne.n	80026f6 <_ZN5esp326Driver17receiveMsgServer_Eh+0x6a>
 80026b0:	f241 028c 	movw	r2, #4236	; 0x108c
 80026b4:	2300      	movs	r3, #0
 80026b6:	4911      	ldr	r1, [pc, #68]	; (80026fc <_ZN5esp326Driver17receiveMsgServer_Eh+0x70>)
 80026b8:	f8a0 3884 	strh.w	r3, [r0, #2180]	; 0x884
 80026bc:	5081      	str	r1, [r0, r2]
 80026be:	f241 0290 	movw	r2, #4240	; 0x1090
 80026c2:	4669      	mov	r1, sp
 80026c4:	5083      	str	r3, [r0, r2]
 80026c6:	2302      	movs	r3, #2
 80026c8:	301c      	adds	r0, #28
 80026ca:	f88d 3000 	strb.w	r3, [sp]
 80026ce:	f7ff ffcd 	bl	800266c <_ZN4core10FixedEventIhE4postERKh.isra.0>
 80026d2:	6ee6      	ldr	r6, [r4, #108]	; 0x6c
 80026d4:	f8ad 5000 	strh.w	r5, [sp]
 80026d8:	f604 048c 	addw	r4, r4, #2188	; 0x88c
 80026dc:	9401      	str	r4, [sp, #4]
 80026de:	b146      	cbz	r6, 80026f2 <_ZN5esp326Driver17receiveMsgServer_Eh+0x66>
 80026e0:	f7ff f966 	bl	80019b0 <_ZN4core6Engine8instanceEv>
 80026e4:	6883      	ldr	r3, [r0, #8]
 80026e6:	7931      	ldrb	r1, [r6, #4]
 80026e8:	681c      	ldr	r4, [r3, #0]
 80026ea:	2308      	movs	r3, #8
 80026ec:	466a      	mov	r2, sp
 80026ee:	4418      	add	r0, r3
 80026f0:	47a0      	blx	r4
 80026f2:	b002      	add	sp, #8
 80026f4:	bd70      	pop	{r4, r5, r6, pc}
 80026f6:	f8a4 5884 	strh.w	r5, [r4, #2180]	; 0x884
 80026fa:	e7fa      	b.n	80026f2 <_ZN5esp326Driver17receiveMsgServer_Eh+0x66>
 80026fc:	08002701 	.word	0x08002701

08002700 <_ZN5esp326Driver18receiveMsgRespond_Eh>:
 8002700:	f8b0 3884 	ldrh.w	r3, [r0, #2180]	; 0x884
 8002704:	18c2      	adds	r2, r0, r3
 8002706:	2b02      	cmp	r3, #2
 8002708:	b573      	push	{r0, r1, r4, r5, r6, lr}
 800270a:	f882 188c 	strb.w	r1, [r2, #2188]	; 0x88c
 800270e:	d918      	bls.n	8002742 <_ZN5esp326Driver18receiveMsgRespond_Eh+0x42>
 8002710:	f892 4889 	ldrb.w	r4, [r2, #2185]	; 0x889
 8002714:	2c2b      	cmp	r4, #43	; 0x2b
 8002716:	d115      	bne.n	8002744 <_ZN5esp326Driver18receiveMsgRespond_Eh+0x44>
 8002718:	f892 488a 	ldrb.w	r4, [r2, #2186]	; 0x88a
 800271c:	2c49      	cmp	r4, #73	; 0x49
 800271e:	d111      	bne.n	8002744 <_ZN5esp326Driver18receiveMsgRespond_Eh+0x44>
 8002720:	f892 488b 	ldrb.w	r4, [r2, #2187]	; 0x88b
 8002724:	2c50      	cmp	r4, #80	; 0x50
 8002726:	d10d      	bne.n	8002744 <_ZN5esp326Driver18receiveMsgRespond_Eh+0x44>
 8002728:	2944      	cmp	r1, #68	; 0x44
 800272a:	d10b      	bne.n	8002744 <_ZN5esp326Driver18receiveMsgRespond_Eh+0x44>
 800272c:	f241 038c 	movw	r3, #4236	; 0x108c
 8002730:	4a1f      	ldr	r2, [pc, #124]	; (80027b0 <_ZN5esp326Driver18receiveMsgRespond_Eh+0xb0>)
 8002732:	50c2      	str	r2, [r0, r3]
 8002734:	f241 0290 	movw	r2, #4240	; 0x1090
 8002738:	2300      	movs	r3, #0
 800273a:	5083      	str	r3, [r0, r2]
 800273c:	f8a0 3884 	strh.w	r3, [r0, #2180]	; 0x884
 8002740:	e018      	b.n	8002774 <_ZN5esp326Driver18receiveMsgRespond_Eh+0x74>
 8002742:	b393      	cbz	r3, 80027aa <_ZN5esp326Driver18receiveMsgRespond_Eh+0xaa>
 8002744:	f892 588b 	ldrb.w	r5, [r2, #2187]	; 0x88b
 8002748:	1c5c      	adds	r4, r3, #1
 800274a:	2d4f      	cmp	r5, #79	; 0x4f
 800274c:	b2a4      	uxth	r4, r4
 800274e:	d113      	bne.n	8002778 <_ZN5esp326Driver18receiveMsgRespond_Eh+0x78>
 8002750:	294b      	cmp	r1, #75	; 0x4b
 8002752:	d111      	bne.n	8002778 <_ZN5esp326Driver18receiveMsgRespond_Eh+0x78>
 8002754:	f241 03f6 	movw	r3, #4342	; 0x10f6
 8002758:	2201      	movs	r2, #1
 800275a:	54c2      	strb	r2, [r0, r3]
 800275c:	f8a0 4886 	strh.w	r4, [r0, #2182]	; 0x886
 8002760:	2300      	movs	r3, #0
 8002762:	f8a0 3884 	strh.w	r3, [r0, #2180]	; 0x884
 8002766:	f10d 0107 	add.w	r1, sp, #7
 800276a:	2306      	movs	r3, #6
 800276c:	f88d 3007 	strb.w	r3, [sp, #7]
 8002770:	f7fe ffe7 	bl	8001742 <_ZN4core13SimpleMachine7executeERh>
 8002774:	b002      	add	sp, #8
 8002776:	bd70      	pop	{r4, r5, r6, pc}
 8002778:	2b03      	cmp	r3, #3
 800277a:	d916      	bls.n	80027aa <_ZN5esp326Driver18receiveMsgRespond_Eh+0xaa>
 800277c:	f892 6888 	ldrb.w	r6, [r2, #2184]	; 0x888
 8002780:	2e45      	cmp	r6, #69	; 0x45
 8002782:	d112      	bne.n	80027aa <_ZN5esp326Driver18receiveMsgRespond_Eh+0xaa>
 8002784:	f892 6889 	ldrb.w	r6, [r2, #2185]	; 0x889
 8002788:	2e52      	cmp	r6, #82	; 0x52
 800278a:	d10e      	bne.n	80027aa <_ZN5esp326Driver18receiveMsgRespond_Eh+0xaa>
 800278c:	f892 288a 	ldrb.w	r2, [r2, #2186]	; 0x88a
 8002790:	2a52      	cmp	r2, #82	; 0x52
 8002792:	d10a      	bne.n	80027aa <_ZN5esp326Driver18receiveMsgRespond_Eh+0xaa>
 8002794:	2d4f      	cmp	r5, #79	; 0x4f
 8002796:	d108      	bne.n	80027aa <_ZN5esp326Driver18receiveMsgRespond_Eh+0xaa>
 8002798:	2952      	cmp	r1, #82	; 0x52
 800279a:	d106      	bne.n	80027aa <_ZN5esp326Driver18receiveMsgRespond_Eh+0xaa>
 800279c:	f241 02f6 	movw	r2, #4342	; 0x10f6
 80027a0:	2300      	movs	r3, #0
 80027a2:	5483      	strb	r3, [r0, r2]
 80027a4:	f8a0 4886 	strh.w	r4, [r0, #2182]	; 0x886
 80027a8:	e7db      	b.n	8002762 <_ZN5esp326Driver18receiveMsgRespond_Eh+0x62>
 80027aa:	3301      	adds	r3, #1
 80027ac:	e7c6      	b.n	800273c <_ZN5esp326Driver18receiveMsgRespond_Eh+0x3c>
 80027ae:	bf00      	nop
 80027b0:	0800268d 	.word	0x0800268d

080027b4 <_ZN5esp326Driver12pushCommand_EhtPh>:
 80027b4:	e92d 41ff 	stmdb	sp!, {r0, r1, r2, r3, r4, r5, r6, r7, r8, lr}
 80027b8:	f8d0 5880 	ldr.w	r5, [r0, #2176]	; 0x880
 80027bc:	4698      	mov	r8, r3
 80027be:	f8b0 3870 	ldrh.w	r3, [r0, #2160]	; 0x870
 80027c2:	18ec      	adds	r4, r5, r3
 80027c4:	f8d0 587c 	ldr.w	r5, [r0, #2172]	; 0x87c
 80027c8:	1b64      	subs	r4, r4, r5
 80027ca:	b2a4      	uxth	r4, r4
 80027cc:	42a3      	cmp	r3, r4
 80027ce:	bf38      	it	cc
 80027d0:	1ae4      	subcc	r4, r4, r3
 80027d2:	4617      	mov	r7, r2
 80027d4:	bf38      	it	cc
 80027d6:	b2a4      	uxthcc	r4, r4
 80027d8:	3205      	adds	r2, #5
 80027da:	42a2      	cmp	r2, r4
 80027dc:	4606      	mov	r6, r0
 80027de:	da2a      	bge.n	8002836 <_ZN5esp326Driver12pushCommand_EhtPh+0x82>
 80027e0:	f500 6007 	add.w	r0, r0, #2160	; 0x870
 80027e4:	1cbc      	adds	r4, r7, #2
 80027e6:	9001      	str	r0, [sp, #4]
 80027e8:	f7fe fdcb 	bl	8001382 <_ZN4core5Queue4pushEh>
 80027ec:	f3c4 2107 	ubfx	r1, r4, #8, #8
 80027f0:	9801      	ldr	r0, [sp, #4]
 80027f2:	f7fe fdc6 	bl	8001382 <_ZN4core5Queue4pushEh>
 80027f6:	b2e1      	uxtb	r1, r4
 80027f8:	9801      	ldr	r0, [sp, #4]
 80027fa:	f7fe fdc2 	bl	8001382 <_ZN4core5Queue4pushEh>
 80027fe:	2400      	movs	r4, #0
 8002800:	42a7      	cmp	r7, r4
 8002802:	9801      	ldr	r0, [sp, #4]
 8002804:	dd06      	ble.n	8002814 <_ZN5esp326Driver12pushCommand_EhtPh+0x60>
 8002806:	f818 1004 	ldrb.w	r1, [r8, r4]
 800280a:	9001      	str	r0, [sp, #4]
 800280c:	3401      	adds	r4, #1
 800280e:	f7fe fdb8 	bl	8001382 <_ZN4core5Queue4pushEh>
 8002812:	e7f5      	b.n	8002800 <_ZN5esp326Driver12pushCommand_EhtPh+0x4c>
 8002814:	210d      	movs	r1, #13
 8002816:	9001      	str	r0, [sp, #4]
 8002818:	f7fe fdb3 	bl	8001382 <_ZN4core5Queue4pushEh>
 800281c:	9801      	ldr	r0, [sp, #4]
 800281e:	210a      	movs	r1, #10
 8002820:	f7fe fdaf 	bl	8001382 <_ZN4core5Queue4pushEh>
 8002824:	2301      	movs	r3, #1
 8002826:	f10d 010f 	add.w	r1, sp, #15
 800282a:	f106 001c 	add.w	r0, r6, #28
 800282e:	f88d 300f 	strb.w	r3, [sp, #15]
 8002832:	f7ff ff1b 	bl	800266c <_ZN4core10FixedEventIhE4postERKh.isra.0>
 8002836:	b004      	add	sp, #16
 8002838:	e8bd 81f0 	ldmia.w	sp!, {r4, r5, r6, r7, r8, pc}

0800283c <_ZN5esp326Driver11popCommand_Ev>:
 800283c:	b5f8      	push	{r3, r4, r5, r6, r7, lr}
 800283e:	f500 6507 	add.w	r5, r0, #2160	; 0x870
 8002842:	4604      	mov	r4, r0
 8002844:	4628      	mov	r0, r5
 8002846:	f7ff f84b 	bl	80018e0 <_ZN4core5Queue3popEv>
 800284a:	f241 03f5 	movw	r3, #4341	; 0x10f5
 800284e:	4f14      	ldr	r7, [pc, #80]	; (80028a0 <_ZN5esp326Driver11popCommand_Ev+0x64>)
 8002850:	54e0      	strb	r0, [r4, r3]
 8002852:	4628      	mov	r0, r5
 8002854:	f7ff f844 	bl	80018e0 <_ZN4core5Queue3popEv>
 8002858:	0200      	lsls	r0, r0, #8
 800285a:	f8a4 088a 	strh.w	r0, [r4, #2186]	; 0x88a
 800285e:	4628      	mov	r0, r5
 8002860:	f7ff f83e 	bl	80018e0 <_ZN4core5Queue3popEv>
 8002864:	f8b4 388a 	ldrh.w	r3, [r4, #2186]	; 0x88a
 8002868:	4418      	add	r0, r3
 800286a:	f8a4 088a 	strh.w	r0, [r4, #2186]	; 0x88a
 800286e:	f604 468c 	addw	r6, r4, #3212	; 0xc8c
 8002872:	1b3f      	subs	r7, r7, r4
 8002874:	f8b4 288a 	ldrh.w	r2, [r4, #2186]	; 0x88a
 8002878:	19bb      	adds	r3, r7, r6
 800287a:	429a      	cmp	r2, r3
 800287c:	dd05      	ble.n	800288a <_ZN5esp326Driver11popCommand_Ev+0x4e>
 800287e:	4628      	mov	r0, r5
 8002880:	f7ff f82e 	bl	80018e0 <_ZN4core5Queue3popEv>
 8002884:	f806 0b01 	strb.w	r0, [r6], #1
 8002888:	e7f4      	b.n	8002874 <_ZN5esp326Driver11popCommand_Ev+0x38>
 800288a:	2300      	movs	r3, #0
 800288c:	f8a4 3888 	strh.w	r3, [r4, #2184]	; 0x888
 8002890:	f7ff f88e 	bl	80019b0 <_ZN4core6Engine8instanceEv>
 8002894:	f894 1054 	ldrb.w	r1, [r4, #84]	; 0x54
 8002898:	3008      	adds	r0, #8
 800289a:	f7ff fdad 	bl	80023f8 <_ZN4core10EventQueue4postEh>
 800289e:	bdf8      	pop	{r3, r4, r5, r6, r7, pc}
 80028a0:	fffff374 	.word	0xfffff374

080028a4 <_ZN5esp326Driver12sendHandler_Ev>:
 80028a4:	f8b0 2888 	ldrh.w	r2, [r0, #2184]	; 0x888
 80028a8:	f8b0 388a 	ldrh.w	r3, [r0, #2186]	; 0x88a
 80028ac:	429a      	cmp	r2, r3
 80028ae:	b513      	push	{r0, r1, r4, lr}
 80028b0:	4604      	mov	r4, r0
 80028b2:	d215      	bcs.n	80028e0 <_ZN5esp326Driver12sendHandler_Ev+0x3c>
 80028b4:	f000 f94c 	bl	8002b50 <_ZN5esp323HAL7txReadyEv>
 80028b8:	b148      	cbz	r0, 80028ce <_ZN5esp326Driver12sendHandler_Ev+0x2a>
 80028ba:	f8b4 3888 	ldrh.w	r3, [r4, #2184]	; 0x888
 80028be:	1c5a      	adds	r2, r3, #1
 80028c0:	4423      	add	r3, r4
 80028c2:	f8a4 2888 	strh.w	r2, [r4, #2184]	; 0x888
 80028c6:	f893 0c8c 	ldrb.w	r0, [r3, #3212]	; 0xc8c
 80028ca:	f000 f949 	bl	8002b60 <_ZN5esp323HAL5writeEh>
 80028ce:	f7ff f86f 	bl	80019b0 <_ZN4core6Engine8instanceEv>
 80028d2:	f894 1054 	ldrb.w	r1, [r4, #84]	; 0x54
 80028d6:	3008      	adds	r0, #8
 80028d8:	f7ff fd8e 	bl	80023f8 <_ZN4core10EventQueue4postEh>
 80028dc:	b002      	add	sp, #8
 80028de:	bd10      	pop	{r4, pc}
 80028e0:	2300      	movs	r3, #0
 80028e2:	f8a0 3888 	strh.w	r3, [r0, #2184]	; 0x888
 80028e6:	f10d 0107 	add.w	r1, sp, #7
 80028ea:	2304      	movs	r3, #4
 80028ec:	301c      	adds	r0, #28
 80028ee:	f88d 3007 	strb.w	r3, [sp, #7]
 80028f2:	f7ff febb 	bl	800266c <_ZN4core10FixedEventIhE4postERKh.isra.0>
 80028f6:	e7f1      	b.n	80028dc <_ZN5esp326Driver12sendHandler_Ev+0x38>

080028f8 <__tcf_2>:
 80028f8:	4770      	bx	lr

080028fa <_ZN5esp326Driver13timerHandler_Ev>:
 80028fa:	b507      	push	{r0, r1, r2, lr}
 80028fc:	2300      	movs	r3, #0
 80028fe:	f10d 0107 	add.w	r1, sp, #7
 8002902:	f88d 3007 	strb.w	r3, [sp, #7]
 8002906:	f7fe ff1c 	bl	8001742 <_ZN4core13SimpleMachine7executeERh>
 800290a:	b003      	add	sp, #12
 800290c:	f85d fb04 	ldr.w	pc, [sp], #4

08002910 <__tcf_3>:
 8002910:	4770      	bx	lr
	...

08002914 <_ZN5esp326Driver8instanceEv>:
 8002914:	b573      	push	{r0, r1, r4, r5, r6, lr}
 8002916:	4e32      	ldr	r6, [pc, #200]	; (80029e0 <_ZN5esp326Driver8instanceEv+0xcc>)
 8002918:	7835      	ldrb	r5, [r6, #0]
 800291a:	f3bf 8f5b 	dmb	ish
 800291e:	f015 0501 	ands.w	r5, r5, #1
 8002922:	d15a      	bne.n	80029da <_ZN5esp326Driver8instanceEv+0xc6>
 8002924:	4630      	mov	r0, r6
 8002926:	f001 fce5 	bl	80042f4 <__cxa_guard_acquire>
 800292a:	2800      	cmp	r0, #0
 800292c:	d055      	beq.n	80029da <_ZN5esp326Driver8instanceEv+0xc6>
 800292e:	4c2d      	ldr	r4, [pc, #180]	; (80029e4 <_ZN5esp326Driver8instanceEv+0xd0>)
 8002930:	4b2d      	ldr	r3, [pc, #180]	; (80029e8 <_ZN5esp326Driver8instanceEv+0xd4>)
 8002932:	7525      	strb	r5, [r4, #20]
 8002934:	e9c4 3503 	strd	r3, r5, [r4, #12]
 8002938:	f104 0018 	add.w	r0, r4, #24
 800293c:	4b2b      	ldr	r3, [pc, #172]	; (80029ec <_ZN5esp326Driver8instanceEv+0xd8>)
 800293e:	6023      	str	r3, [r4, #0]
 8002940:	e9c4 5501 	strd	r5, r5, [r4, #4]
 8002944:	f7ff fba6 	bl	8002094 <_ZN4core5EventC1Ev>
 8002948:	4b29      	ldr	r3, [pc, #164]	; (80029f0 <_ZN5esp326Driver8instanceEv+0xdc>)
 800294a:	61a3      	str	r3, [r4, #24]
 800294c:	4b29      	ldr	r3, [pc, #164]	; (80029f4 <_ZN5esp326Driver8instanceEv+0xe0>)
 800294e:	6224      	str	r4, [r4, #32]
 8002950:	e9c4 3509 	strd	r3, r5, [r4, #36]	; 0x24
 8002954:	4b28      	ldr	r3, [pc, #160]	; (80029f8 <_ZN5esp326Driver8instanceEv+0xe4>)
 8002956:	6023      	str	r3, [r4, #0]
 8002958:	4b28      	ldr	r3, [pc, #160]	; (80029fc <_ZN5esp326Driver8instanceEv+0xe8>)
 800295a:	e9cd 3500 	strd	r3, r5, [sp]
 800295e:	ab02      	add	r3, sp, #8
 8002960:	e913 000c 	ldmdb	r3, {r2, r3}
 8002964:	4621      	mov	r1, r4
 8002966:	f104 0030 	add.w	r0, r4, #48	; 0x30
 800296a:	f7ff fc7f 	bl	800226c <_ZN4core4TaskC1EPNS_9ComponentEMS1_FvvE>
 800296e:	f104 0050 	add.w	r0, r4, #80	; 0x50
 8002972:	f7ff fb8f 	bl	8002094 <_ZN4core5EventC1Ev>
 8002976:	4b22      	ldr	r3, [pc, #136]	; (8002a00 <_ZN5esp326Driver8instanceEv+0xec>)
 8002978:	6523      	str	r3, [r4, #80]	; 0x50
 800297a:	4b22      	ldr	r3, [pc, #136]	; (8002a04 <_ZN5esp326Driver8instanceEv+0xf0>)
 800297c:	65a4      	str	r4, [r4, #88]	; 0x58
 800297e:	e9c4 3517 	strd	r3, r5, [r4, #92]	; 0x5c
 8002982:	f44f 6200 	mov.w	r2, #2048	; 0x800
 8002986:	f104 0370 	add.w	r3, r4, #112	; 0x70
 800298a:	f8c4 3874 	str.w	r3, [r4, #2164]	; 0x874
 800298e:	f8a4 2870 	strh.w	r2, [r4, #2160]	; 0x870
 8002992:	f8c4 387c 	str.w	r3, [r4, #2172]	; 0x87c
 8002996:	f504 6207 	add.w	r2, r4, #2160	; 0x870
 800299a:	f8c4 3880 	str.w	r3, [r4, #2176]	; 0x880
 800299e:	f241 038c 	movw	r3, #4236	; 0x108c
 80029a2:	f8c4 2878 	str.w	r2, [r4, #2168]	; 0x878
 80029a6:	4a18      	ldr	r2, [pc, #96]	; (8002a08 <_ZN5esp326Driver8instanceEv+0xf4>)
 80029a8:	50e2      	str	r2, [r4, r3]
 80029aa:	f241 0390 	movw	r3, #4240	; 0x1090
 80029ae:	f44f 427f 	mov.w	r2, #65280	; 0xff00
 80029b2:	50e5      	str	r5, [r4, r3]
 80029b4:	f241 03f4 	movw	r3, #4340	; 0x10f4
 80029b8:	4630      	mov	r0, r6
 80029ba:	52e2      	strh	r2, [r4, r3]
 80029bc:	f241 03f6 	movw	r3, #4342	; 0x10f6
 80029c0:	e9c4 5519 	strd	r5, r5, [r4, #100]	; 0x64
 80029c4:	54e5      	strb	r5, [r4, r3]
 80029c6:	66e5      	str	r5, [r4, #108]	; 0x6c
 80029c8:	f8c4 5884 	str.w	r5, [r4, #2180]	; 0x884
 80029cc:	f8c4 5888 	str.w	r5, [r4, #2184]	; 0x888
 80029d0:	f001 fc9c 	bl	800430c <__cxa_guard_release>
 80029d4:	480d      	ldr	r0, [pc, #52]	; (8002a0c <_ZN5esp326Driver8instanceEv+0xf8>)
 80029d6:	f002 fc88 	bl	80052ea <atexit>
 80029da:	4802      	ldr	r0, [pc, #8]	; (80029e4 <_ZN5esp326Driver8instanceEv+0xd0>)
 80029dc:	b002      	add	sp, #8
 80029de:	bd70      	pop	{r4, r5, r6, pc}
 80029e0:	20001aa8 	.word	0x20001aa8
 80029e4:	20001ab0 	.word	0x20001ab0
 80029e8:	08000ec5 	.word	0x08000ec5
 80029ec:	08005e54 	.word	0x08005e54
 80029f0:	08005dcc 	.word	0x08005dcc
 80029f4:	08001743 	.word	0x08001743
 80029f8:	08005f38 	.word	0x08005f38
 80029fc:	080028fb 	.word	0x080028fb
 8002a00:	08005db8 	.word	0x08005db8
 8002a04:	080028a5 	.word	0x080028a5
 8002a08:	08002701 	.word	0x08002701
 8002a0c:	08002911 	.word	0x08002911

08002a10 <_ZN5esp328EspEventC1EPN4core9ComponentEMS2_FvbPhtE>:
 8002a10:	e92d 41ff 	stmdb	sp!, {r0, r1, r2, r3, r4, r5, r6, r7, r8, lr}
 8002a14:	4604      	mov	r4, r0
 8002a16:	4668      	mov	r0, sp
 8002a18:	6061      	str	r1, [r4, #4]
 8002a1a:	f104 0108 	add.w	r1, r4, #8
 8002a1e:	e881 000c 	stmia.w	r1, {r2, r3}
 8002a22:	e880 000c 	stmia.w	r0, {r2, r3}
 8002a26:	f7ff ff75 	bl	8002914 <_ZN5esp326Driver8instanceEv>
 8002a2a:	f241 03f4 	movw	r3, #4340	; 0x10f4
 8002a2e:	4606      	mov	r6, r0
 8002a30:	5cc2      	ldrb	r2, [r0, r3]
 8002a32:	f202 4324 	addw	r3, r2, #1060	; 0x424
 8002a36:	eb00 0383 	add.w	r3, r0, r3, lsl #2
 8002a3a:	2a17      	cmp	r2, #23
 8002a3c:	605c      	str	r4, [r3, #4]
 8002a3e:	d928      	bls.n	8002a92 <_ZN5esp328EspEventC1EPN4core9ComponentEMS2_FvbPhtE+0x82>
 8002a40:	f8df 8078 	ldr.w	r8, [pc, #120]	; 8002abc <_ZN5esp328EspEventC1EPN4core9ComponentEMS2_FvbPhtE+0xac>
 8002a44:	f898 5000 	ldrb.w	r5, [r8]
 8002a48:	f3bf 8f5b 	dmb	ish
 8002a4c:	f015 0501 	ands.w	r5, r5, #1
 8002a50:	d11b      	bne.n	8002a8a <_ZN5esp328EspEventC1EPN4core9ComponentEMS2_FvbPhtE+0x7a>
 8002a52:	4640      	mov	r0, r8
 8002a54:	f001 fc4e 	bl	80042f4 <__cxa_guard_acquire>
 8002a58:	b1b8      	cbz	r0, 8002a8a <_ZN5esp328EspEventC1EPN4core9ComponentEMS2_FvbPhtE+0x7a>
 8002a5a:	4f13      	ldr	r7, [pc, #76]	; (8002aa8 <_ZN5esp328EspEventC1EPN4core9ComponentEMS2_FvbPhtE+0x98>)
 8002a5c:	4b13      	ldr	r3, [pc, #76]	; (8002aac <_ZN5esp328EspEventC1EPN4core9ComponentEMS2_FvbPhtE+0x9c>)
 8002a5e:	603b      	str	r3, [r7, #0]
 8002a60:	4b13      	ldr	r3, [pc, #76]	; (8002ab0 <_ZN5esp328EspEventC1EPN4core9ComponentEMS2_FvbPhtE+0xa0>)
 8002a62:	e9cd 3502 	strd	r3, r5, [sp, #8]
 8002a66:	ab04      	add	r3, sp, #16
 8002a68:	e913 000c 	ldmdb	r3, {r2, r3}
 8002a6c:	4639      	mov	r1, r7
 8002a6e:	f107 0008 	add.w	r0, r7, #8
 8002a72:	f7ff fbfb 	bl	800226c <_ZN4core4TaskC1EPNS_9ComponentEMS1_FvvE>
 8002a76:	4640      	mov	r0, r8
 8002a78:	62bd      	str	r5, [r7, #40]	; 0x28
 8002a7a:	f887 502c 	strb.w	r5, [r7, #44]	; 0x2c
 8002a7e:	653d      	str	r5, [r7, #80]	; 0x50
 8002a80:	f001 fc44 	bl	800430c <__cxa_guard_release>
 8002a84:	480b      	ldr	r0, [pc, #44]	; (8002ab4 <_ZN5esp328EspEventC1EPN4core9ComponentEMS2_FvbPhtE+0xa4>)
 8002a86:	f002 fc30 	bl	80052ea <atexit>
 8002a8a:	490b      	ldr	r1, [pc, #44]	; (8002ab8 <_ZN5esp328EspEventC1EPN4core9ComponentEMS2_FvbPhtE+0xa8>)
 8002a8c:	4806      	ldr	r0, [pc, #24]	; (8002aa8 <_ZN5esp328EspEventC1EPN4core9ComponentEMS2_FvbPhtE+0x98>)
 8002a8e:	f7fe faef 	bl	8001070 <_ZN7console10Controller5printEPKc>
 8002a92:	f241 02f4 	movw	r2, #4340	; 0x10f4
 8002a96:	4620      	mov	r0, r4
 8002a98:	5cb3      	ldrb	r3, [r6, r2]
 8002a9a:	1c59      	adds	r1, r3, #1
 8002a9c:	54b1      	strb	r1, [r6, r2]
 8002a9e:	7023      	strb	r3, [r4, #0]
 8002aa0:	b004      	add	sp, #16
 8002aa2:	e8bd 81f0 	ldmia.w	sp!, {r4, r5, r6, r7, r8, pc}
 8002aa6:	bf00      	nop
 8002aa8:	200009f8 	.word	0x200009f8
 8002aac:	08005dfc 	.word	0x08005dfc
 8002ab0:	080015b9 	.word	0x080015b9
 8002ab4:	080028f9 	.word	0x080028f9
 8002ab8:	08005f4c 	.word	0x08005f4c
 8002abc:	200009f4 	.word	0x200009f4

08002ac0 <_ZN5esp328EspEvent4postEPht>:
 8002ac0:	b513      	push	{r0, r1, r4, lr}
 8002ac2:	4604      	mov	r4, r0
 8002ac4:	e9cd 2100 	strd	r2, r1, [sp]
 8002ac8:	f7ff ff24 	bl	8002914 <_ZN5esp326Driver8instanceEv>
 8002acc:	e9dd 2300 	ldrd	r2, r3, [sp]
 8002ad0:	7821      	ldrb	r1, [r4, #0]
 8002ad2:	b002      	add	sp, #8
 8002ad4:	e8bd 4010 	ldmia.w	sp!, {r4, lr}
 8002ad8:	f7ff be6c 	b.w	80027b4 <_ZN5esp326Driver12pushCommand_EhtPh>

08002adc <_ZN5esp328EspEvent7executeEbPht>:
 8002adc:	b4f0      	push	{r4, r5, r6, r7}
 8002ade:	68c5      	ldr	r5, [r0, #12]
 8002ae0:	6846      	ldr	r6, [r0, #4]
 8002ae2:	106f      	asrs	r7, r5, #1
 8002ae4:	4604      	mov	r4, r0
 8002ae6:	eb06 0065 	add.w	r0, r6, r5, asr #1
 8002aea:	07ed      	lsls	r5, r5, #31
 8002aec:	68a4      	ldr	r4, [r4, #8]
 8002aee:	bf44      	itt	mi
 8002af0:	59f5      	ldrmi	r5, [r6, r7]
 8002af2:	592c      	ldrmi	r4, [r5, r4]
 8002af4:	46a4      	mov	ip, r4
 8002af6:	bcf0      	pop	{r4, r5, r6, r7}
 8002af8:	4760      	bx	ip
	...

08002afc <_ZN5esp323HAL4initEv>:
 8002afc:	b508      	push	{r3, lr}
 8002afe:	f000 ff0b 	bl	8003918 <MX_USART6_UART_Init>
 8002b02:	4b11      	ldr	r3, [pc, #68]	; (8002b48 <_ZN5esp323HAL4initEv+0x4c>)
 8002b04:	e853 2f00 	ldrex	r2, [r3]
 8002b08:	f042 0220 	orr.w	r2, r2, #32
 8002b0c:	e843 2100 	strex	r1, r2, [r3]
 8002b10:	2900      	cmp	r1, #0
 8002b12:	d1f7      	bne.n	8002b04 <_ZN5esp323HAL4initEv+0x8>
 8002b14:	490d      	ldr	r1, [pc, #52]	; (8002b4c <_ZN5esp323HAL4initEv+0x50>)
 8002b16:	e851 2f00 	ldrex	r2, [r1]
 8002b1a:	f042 0201 	orr.w	r2, r2, #1
 8002b1e:	e841 2000 	strex	r0, r2, [r1]
 8002b22:	2800      	cmp	r0, #0
 8002b24:	d1f7      	bne.n	8002b16 <_ZN5esp323HAL4initEv+0x1a>
 8002b26:	e853 2f00 	ldrex	r2, [r3]
 8002b2a:	f022 0240 	bic.w	r2, r2, #64	; 0x40
 8002b2e:	e843 2100 	strex	r1, r2, [r3]
 8002b32:	2900      	cmp	r1, #0
 8002b34:	d1f7      	bne.n	8002b26 <_ZN5esp323HAL4initEv+0x2a>
 8002b36:	e853 2f00 	ldrex	r2, [r3]
 8002b3a:	f022 0280 	bic.w	r2, r2, #128	; 0x80
 8002b3e:	e843 2100 	strex	r1, r2, [r3]
 8002b42:	2900      	cmp	r1, #0
 8002b44:	d1f7      	bne.n	8002b36 <_ZN5esp323HAL4initEv+0x3a>
 8002b46:	bd08      	pop	{r3, pc}
 8002b48:	4001140c 	.word	0x4001140c
 8002b4c:	40011414 	.word	0x40011414

08002b50 <_ZN5esp323HAL7txReadyEv>:
 8002b50:	4b02      	ldr	r3, [pc, #8]	; (8002b5c <_ZN5esp323HAL7txReadyEv+0xc>)
 8002b52:	6818      	ldr	r0, [r3, #0]
 8002b54:	f3c0 10c0 	ubfx	r0, r0, #7, #1
 8002b58:	4770      	bx	lr
 8002b5a:	bf00      	nop
 8002b5c:	40011400 	.word	0x40011400

08002b60 <_ZN5esp323HAL5writeEh>:
 8002b60:	4b01      	ldr	r3, [pc, #4]	; (8002b68 <_ZN5esp323HAL5writeEh+0x8>)
 8002b62:	6058      	str	r0, [r3, #4]
 8002b64:	4770      	bx	lr
 8002b66:	bf00      	nop
 8002b68:	40011400 	.word	0x40011400

08002b6c <USART6_IRQHandler>:
 8002b6c:	b570      	push	{r4, r5, r6, lr}
 8002b6e:	4c17      	ldr	r4, [pc, #92]	; (8002bcc <USART6_IRQHandler+0x60>)
 8002b70:	7823      	ldrb	r3, [r4, #0]
 8002b72:	f3bf 8f5b 	dmb	ish
 8002b76:	07db      	lsls	r3, r3, #31
 8002b78:	d40a      	bmi.n	8002b90 <USART6_IRQHandler+0x24>
 8002b7a:	4620      	mov	r0, r4
 8002b7c:	f001 fbba 	bl	80042f4 <__cxa_guard_acquire>
 8002b80:	b130      	cbz	r0, 8002b90 <USART6_IRQHandler+0x24>
 8002b82:	f7ff fec7 	bl	8002914 <_ZN5esp326Driver8instanceEv>
 8002b86:	4b12      	ldr	r3, [pc, #72]	; (8002bd0 <USART6_IRQHandler+0x64>)
 8002b88:	6018      	str	r0, [r3, #0]
 8002b8a:	4620      	mov	r0, r4
 8002b8c:	f001 fbbe 	bl	800430c <__cxa_guard_release>
 8002b90:	4b10      	ldr	r3, [pc, #64]	; (8002bd4 <USART6_IRQHandler+0x68>)
 8002b92:	681a      	ldr	r2, [r3, #0]
 8002b94:	0696      	lsls	r6, r2, #26
 8002b96:	d517      	bpl.n	8002bc8 <USART6_IRQHandler+0x5c>
 8002b98:	68da      	ldr	r2, [r3, #12]
 8002b9a:	0695      	lsls	r5, r2, #26
 8002b9c:	d514      	bpl.n	8002bc8 <USART6_IRQHandler+0x5c>
 8002b9e:	6859      	ldr	r1, [r3, #4]
 8002ba0:	4b0b      	ldr	r3, [pc, #44]	; (8002bd0 <USART6_IRQHandler+0x64>)
 8002ba2:	f241 0290 	movw	r2, #4240	; 0x1090
 8002ba6:	681b      	ldr	r3, [r3, #0]
 8002ba8:	589c      	ldr	r4, [r3, r2]
 8002baa:	f241 028c 	movw	r2, #4236	; 0x108c
 8002bae:	1065      	asrs	r5, r4, #1
 8002bb0:	eb03 0064 	add.w	r0, r3, r4, asr #1
 8002bb4:	07e4      	lsls	r4, r4, #31
 8002bb6:	589a      	ldr	r2, [r3, r2]
 8002bb8:	bf48      	it	mi
 8002bba:	595b      	ldrmi	r3, [r3, r5]
 8002bbc:	b2c9      	uxtb	r1, r1
 8002bbe:	e8bd 4070 	ldmia.w	sp!, {r4, r5, r6, lr}
 8002bc2:	bf48      	it	mi
 8002bc4:	589a      	ldrmi	r2, [r3, r2]
 8002bc6:	4710      	bx	r2
 8002bc8:	bd70      	pop	{r4, r5, r6, pc}
 8002bca:	bf00      	nop
 8002bcc:	20002ba8 	.word	0x20002ba8
 8002bd0:	20002bac 	.word	0x20002bac
 8002bd4:	40011400 	.word	0x40011400

08002bd8 <_ZN5esp329TcpClient7StartUpEv>:
 8002bd8:	b538      	push	{r3, r4, r5, lr}
 8002bda:	7d03      	ldrb	r3, [r0, #20]
 8002bdc:	2bfe      	cmp	r3, #254	; 0xfe
 8002bde:	4604      	mov	r4, r0
 8002be0:	d104      	bne.n	8002bec <_ZN5esp329TcpClient7StartUpEv+0x14>
 8002be2:	2201      	movs	r2, #1
 8002be4:	2164      	movs	r1, #100	; 0x64
 8002be6:	3030      	adds	r0, #48	; 0x30
 8002be8:	f7ff fb55 	bl	8002296 <_ZN4core4Task5startEml>
 8002bec:	4623      	mov	r3, r4
 8002bee:	2100      	movs	r1, #0
 8002bf0:	f853 2b0c 	ldr.w	r2, [r3], #12
 8002bf4:	4620      	mov	r0, r4
 8002bf6:	68d5      	ldr	r5, [r2, #12]
 8002bf8:	cb0c      	ldmia	r3, {r2, r3}
 8002bfa:	47a8      	blx	r5
 8002bfc:	b128      	cbz	r0, 8002c0a <_ZN5esp329TcpClient7StartUpEv+0x32>
 8002bfe:	f8d4 3584 	ldr.w	r3, [r4, #1412]	; 0x584
 8002c02:	b913      	cbnz	r3, 8002c0a <_ZN5esp329TcpClient7StartUpEv+0x32>
 8002c04:	4a01      	ldr	r2, [pc, #4]	; (8002c0c <_ZN5esp329TcpClient7StartUpEv+0x34>)
 8002c06:	e9c4 2301 	strd	r2, r3, [r4, #4]
 8002c0a:	bd38      	pop	{r3, r4, r5, pc}
 8002c0c:	08002c35 	.word	0x08002c35

08002c10 <_ZN5esp326Driver6rebootEv>:
 8002c10:	b537      	push	{r0, r1, r2, r4, r5, lr}
 8002c12:	2303      	movs	r3, #3
 8002c14:	4604      	mov	r4, r0
 8002c16:	f88d 3007 	strb.w	r3, [sp, #7]
 8002c1a:	f7fe fec9 	bl	80019b0 <_ZN4core6Engine8instanceEv>
 8002c1e:	6883      	ldr	r3, [r0, #8]
 8002c20:	7f21      	ldrb	r1, [r4, #28]
 8002c22:	681d      	ldr	r5, [r3, #0]
 8002c24:	f10d 0207 	add.w	r2, sp, #7
 8002c28:	2301      	movs	r3, #1
 8002c2a:	3008      	adds	r0, #8
 8002c2c:	47a8      	blx	r5
 8002c2e:	b003      	add	sp, #12
 8002c30:	bd30      	pop	{r4, r5, pc}
	...

08002c34 <_ZN5esp329TcpClient10TurnOffATEEv>:
 8002c34:	e92d 41ff 	stmdb	sp!, {r0, r1, r2, r3, r4, r5, r6, r7, r8, lr}
 8002c38:	7d03      	ldrb	r3, [r0, #20]
 8002c3a:	2bfe      	cmp	r3, #254	; 0xfe
 8002c3c:	4604      	mov	r4, r0
 8002c3e:	d107      	bne.n	8002c50 <_ZN5esp329TcpClient10TurnOffATEEv+0x1c>
 8002c40:	f7fe ff18 	bl	8001a74 <_ZN7console10Controller8instanceEv>
 8002c44:	4928      	ldr	r1, [pc, #160]	; (8002ce8 <_ZN5esp329TcpClient10TurnOffATEEv+0xb4>)
 8002c46:	f7fe fa24 	bl	8001092 <_ZN7console10Controller6printfEPKcz>
 8002c4a:	4620      	mov	r0, r4
 8002c4c:	f000 fb2a 	bl	80032a4 <_ZN5esp329TcpClient11turnOffATE_Ev>
 8002c50:	6823      	ldr	r3, [r4, #0]
 8002c52:	4a26      	ldr	r2, [pc, #152]	; (8002cec <_ZN5esp329TcpClient10TurnOffATEEv+0xb8>)
 8002c54:	68dd      	ldr	r5, [r3, #12]
 8002c56:	4b25      	ldr	r3, [pc, #148]	; (8002cec <_ZN5esp329TcpClient10TurnOffATEEv+0xb8>)
 8002c58:	9300      	str	r3, [sp, #0]
 8002c5a:	2600      	movs	r6, #0
 8002c5c:	4633      	mov	r3, r6
 8002c5e:	2101      	movs	r1, #1
 8002c60:	9601      	str	r6, [sp, #4]
 8002c62:	4620      	mov	r0, r4
 8002c64:	47a8      	blx	r5
 8002c66:	4625      	mov	r5, r4
 8002c68:	2102      	movs	r1, #2
 8002c6a:	f855 3b0c 	ldr.w	r3, [r5], #12
 8002c6e:	f8df 8084 	ldr.w	r8, [pc, #132]	; 8002cf4 <_ZN5esp329TcpClient10TurnOffATEEv+0xc0>
 8002c72:	68df      	ldr	r7, [r3, #12]
 8002c74:	4620      	mov	r0, r4
 8002c76:	e895 000c 	ldmia.w	r5, {r2, r3}
 8002c7a:	47b8      	blx	r7
 8002c7c:	b168      	cbz	r0, 8002c9a <_ZN5esp329TcpClient10TurnOffATEEv+0x66>
 8002c7e:	4f1c      	ldr	r7, [pc, #112]	; (8002cf0 <_ZN5esp329TcpClient10TurnOffATEEv+0xbc>)
 8002c80:	783b      	ldrb	r3, [r7, #0]
 8002c82:	3301      	adds	r3, #1
 8002c84:	b2db      	uxtb	r3, r3
 8002c86:	2b02      	cmp	r3, #2
 8002c88:	703b      	strb	r3, [r7, #0]
 8002c8a:	d825      	bhi.n	8002cd8 <_ZN5esp329TcpClient10TurnOffATEEv+0xa4>
 8002c8c:	2201      	movs	r2, #1
 8002c8e:	f44f 717a 	mov.w	r1, #1000	; 0x3e8
 8002c92:	f104 0030 	add.w	r0, r4, #48	; 0x30
 8002c96:	f7ff fafe 	bl	8002296 <_ZN4core4Task5startEml>
 8002c9a:	6823      	ldr	r3, [r4, #0]
 8002c9c:	2100      	movs	r1, #0
 8002c9e:	68de      	ldr	r6, [r3, #12]
 8002ca0:	4620      	mov	r0, r4
 8002ca2:	e895 000c 	ldmia.w	r5, {r2, r3}
 8002ca6:	47b0      	blx	r6
 8002ca8:	b110      	cbz	r0, 8002cb0 <_ZN5esp329TcpClient10TurnOffATEEv+0x7c>
 8002caa:	4620      	mov	r0, r4
 8002cac:	f000 fafa 	bl	80032a4 <_ZN5esp329TcpClient11turnOffATE_Ev>
 8002cb0:	6823      	ldr	r3, [r4, #0]
 8002cb2:	f8cd 8008 	str.w	r8, [sp, #8]
 8002cb6:	2500      	movs	r5, #0
 8002cb8:	68de      	ldr	r6, [r3, #12]
 8002cba:	9503      	str	r5, [sp, #12]
 8002cbc:	ab04      	add	r3, sp, #16
 8002cbe:	e913 000c 	ldmdb	r3, {r2, r3}
 8002cc2:	2103      	movs	r1, #3
 8002cc4:	4620      	mov	r0, r4
 8002cc6:	47b0      	blx	r6
 8002cc8:	7d23      	ldrb	r3, [r4, #20]
 8002cca:	2bff      	cmp	r3, #255	; 0xff
 8002ccc:	bf04      	itt	eq
 8002cce:	4b08      	ldreq	r3, [pc, #32]	; (8002cf0 <_ZN5esp329TcpClient10TurnOffATEEv+0xbc>)
 8002cd0:	701d      	strbeq	r5, [r3, #0]
 8002cd2:	b004      	add	sp, #16
 8002cd4:	e8bd 81f0 	ldmia.w	sp!, {r4, r5, r6, r7, r8, pc}
 8002cd8:	f7ff fe1c 	bl	8002914 <_ZN5esp326Driver8instanceEv>
 8002cdc:	f7ff ff98 	bl	8002c10 <_ZN5esp326Driver6rebootEv>
 8002ce0:	e9c4 8601 	strd	r8, r6, [r4, #4]
 8002ce4:	703e      	strb	r6, [r7, #0]
 8002ce6:	e7d8      	b.n	8002c9a <_ZN5esp329TcpClient10TurnOffATEEv+0x66>
 8002ce8:	08005f5c 	.word	0x08005f5c
 8002cec:	08002cf9 	.word	0x08002cf9
 8002cf0:	20002bb1 	.word	0x20002bb1
 8002cf4:	08002bd9 	.word	0x08002bd9

08002cf8 <_ZN5esp329TcpClient11SetWifiModeEv>:
 8002cf8:	e92d 41ff 	stmdb	sp!, {r0, r1, r2, r3, r4, r5, r6, r7, r8, lr}
 8002cfc:	7d03      	ldrb	r3, [r0, #20]
 8002cfe:	2bfe      	cmp	r3, #254	; 0xfe
 8002d00:	4604      	mov	r4, r0
 8002d02:	d107      	bne.n	8002d14 <_ZN5esp329TcpClient11SetWifiModeEv+0x1c>
 8002d04:	f7fe feb6 	bl	8001a74 <_ZN7console10Controller8instanceEv>
 8002d08:	4928      	ldr	r1, [pc, #160]	; (8002dac <_ZN5esp329TcpClient11SetWifiModeEv+0xb4>)
 8002d0a:	f7fe f9c2 	bl	8001092 <_ZN7console10Controller6printfEPKcz>
 8002d0e:	4620      	mov	r0, r4
 8002d10:	f000 fad0 	bl	80032b4 <_ZN5esp329TcpClient12setWifiMode_Ev>
 8002d14:	6823      	ldr	r3, [r4, #0]
 8002d16:	4a26      	ldr	r2, [pc, #152]	; (8002db0 <_ZN5esp329TcpClient11SetWifiModeEv+0xb8>)
 8002d18:	68dd      	ldr	r5, [r3, #12]
 8002d1a:	4b25      	ldr	r3, [pc, #148]	; (8002db0 <_ZN5esp329TcpClient11SetWifiModeEv+0xb8>)
 8002d1c:	9300      	str	r3, [sp, #0]
 8002d1e:	2600      	movs	r6, #0
 8002d20:	4633      	mov	r3, r6
 8002d22:	2101      	movs	r1, #1
 8002d24:	9601      	str	r6, [sp, #4]
 8002d26:	4620      	mov	r0, r4
 8002d28:	47a8      	blx	r5
 8002d2a:	4625      	mov	r5, r4
 8002d2c:	2102      	movs	r1, #2
 8002d2e:	f855 3b0c 	ldr.w	r3, [r5], #12
 8002d32:	f8df 8084 	ldr.w	r8, [pc, #132]	; 8002db8 <_ZN5esp329TcpClient11SetWifiModeEv+0xc0>
 8002d36:	68df      	ldr	r7, [r3, #12]
 8002d38:	4620      	mov	r0, r4
 8002d3a:	e895 000c 	ldmia.w	r5, {r2, r3}
 8002d3e:	47b8      	blx	r7
 8002d40:	b168      	cbz	r0, 8002d5e <_ZN5esp329TcpClient11SetWifiModeEv+0x66>
 8002d42:	4f1c      	ldr	r7, [pc, #112]	; (8002db4 <_ZN5esp329TcpClient11SetWifiModeEv+0xbc>)
 8002d44:	783b      	ldrb	r3, [r7, #0]
 8002d46:	3301      	adds	r3, #1
 8002d48:	b2db      	uxtb	r3, r3
 8002d4a:	2b02      	cmp	r3, #2
 8002d4c:	703b      	strb	r3, [r7, #0]
 8002d4e:	d825      	bhi.n	8002d9c <_ZN5esp329TcpClient11SetWifiModeEv+0xa4>
 8002d50:	2201      	movs	r2, #1
 8002d52:	f44f 717a 	mov.w	r1, #1000	; 0x3e8
 8002d56:	f104 0030 	add.w	r0, r4, #48	; 0x30
 8002d5a:	f7ff fa9c 	bl	8002296 <_ZN4core4Task5startEml>
 8002d5e:	6823      	ldr	r3, [r4, #0]
 8002d60:	2100      	movs	r1, #0
 8002d62:	68de      	ldr	r6, [r3, #12]
 8002d64:	4620      	mov	r0, r4
 8002d66:	e895 000c 	ldmia.w	r5, {r2, r3}
 8002d6a:	47b0      	blx	r6
 8002d6c:	b110      	cbz	r0, 8002d74 <_ZN5esp329TcpClient11SetWifiModeEv+0x7c>
 8002d6e:	4620      	mov	r0, r4
 8002d70:	f000 faa0 	bl	80032b4 <_ZN5esp329TcpClient12setWifiMode_Ev>
 8002d74:	6823      	ldr	r3, [r4, #0]
 8002d76:	f8cd 8008 	str.w	r8, [sp, #8]
 8002d7a:	2500      	movs	r5, #0
 8002d7c:	68de      	ldr	r6, [r3, #12]
 8002d7e:	9503      	str	r5, [sp, #12]
 8002d80:	ab04      	add	r3, sp, #16
 8002d82:	e913 000c 	ldmdb	r3, {r2, r3}
 8002d86:	2103      	movs	r1, #3
 8002d88:	4620      	mov	r0, r4
 8002d8a:	47b0      	blx	r6
 8002d8c:	7d23      	ldrb	r3, [r4, #20]
 8002d8e:	2bff      	cmp	r3, #255	; 0xff
 8002d90:	bf04      	itt	eq
 8002d92:	4b08      	ldreq	r3, [pc, #32]	; (8002db4 <_ZN5esp329TcpClient11SetWifiModeEv+0xbc>)
 8002d94:	701d      	strbeq	r5, [r3, #0]
 8002d96:	b004      	add	sp, #16
 8002d98:	e8bd 81f0 	ldmia.w	sp!, {r4, r5, r6, r7, r8, pc}
 8002d9c:	f7ff fdba 	bl	8002914 <_ZN5esp326Driver8instanceEv>
 8002da0:	f7ff ff36 	bl	8002c10 <_ZN5esp326Driver6rebootEv>
 8002da4:	e9c4 8601 	strd	r8, r6, [r4, #4]
 8002da8:	703e      	strb	r6, [r7, #0]
 8002daa:	e7d8      	b.n	8002d5e <_ZN5esp329TcpClient11SetWifiModeEv+0x66>
 8002dac:	08005f6f 	.word	0x08005f6f
 8002db0:	08002dbd 	.word	0x08002dbd
 8002db4:	20002bb3 	.word	0x20002bb3
 8002db8:	08002bd9 	.word	0x08002bd9

08002dbc <_ZN5esp329TcpClient14CheckWifiStateEv>:
 8002dbc:	e92d 41f0 	stmdb	sp!, {r4, r5, r6, r7, r8, lr}
 8002dc0:	7d03      	ldrb	r3, [r0, #20]
 8002dc2:	2bfe      	cmp	r3, #254	; 0xfe
 8002dc4:	b086      	sub	sp, #24
 8002dc6:	4604      	mov	r4, r0
 8002dc8:	d107      	bne.n	8002dda <_ZN5esp329TcpClient14CheckWifiStateEv+0x1e>
 8002dca:	f7fe fe53 	bl	8001a74 <_ZN7console10Controller8instanceEv>
 8002dce:	492e      	ldr	r1, [pc, #184]	; (8002e88 <_ZN5esp329TcpClient14CheckWifiStateEv+0xcc>)
 8002dd0:	f7fe f95f 	bl	8001092 <_ZN7console10Controller6printfEPKcz>
 8002dd4:	4620      	mov	r0, r4
 8002dd6:	f000 fa75 	bl	80032c4 <_ZN5esp329TcpClient15checkWifiState_Ev>
 8002dda:	6823      	ldr	r3, [r4, #0]
 8002ddc:	4a2b      	ldr	r2, [pc, #172]	; (8002e8c <_ZN5esp329TcpClient14CheckWifiStateEv+0xd0>)
 8002dde:	68dd      	ldr	r5, [r3, #12]
 8002de0:	4b2a      	ldr	r3, [pc, #168]	; (8002e8c <_ZN5esp329TcpClient14CheckWifiStateEv+0xd0>)
 8002de2:	9300      	str	r3, [sp, #0]
 8002de4:	2600      	movs	r6, #0
 8002de6:	4633      	mov	r3, r6
 8002de8:	2104      	movs	r1, #4
 8002dea:	9601      	str	r6, [sp, #4]
 8002dec:	4620      	mov	r0, r4
 8002dee:	47a8      	blx	r5
 8002df0:	6823      	ldr	r3, [r4, #0]
 8002df2:	4a27      	ldr	r2, [pc, #156]	; (8002e90 <_ZN5esp329TcpClient14CheckWifiStateEv+0xd4>)
 8002df4:	68dd      	ldr	r5, [r3, #12]
 8002df6:	4b26      	ldr	r3, [pc, #152]	; (8002e90 <_ZN5esp329TcpClient14CheckWifiStateEv+0xd4>)
 8002df8:	f8df 809c 	ldr.w	r8, [pc, #156]	; 8002e98 <_ZN5esp329TcpClient14CheckWifiStateEv+0xdc>
 8002dfc:	e9cd 3602 	strd	r3, r6, [sp, #8]
 8002e00:	2105      	movs	r1, #5
 8002e02:	4633      	mov	r3, r6
 8002e04:	4620      	mov	r0, r4
 8002e06:	47a8      	blx	r5
 8002e08:	4625      	mov	r5, r4
 8002e0a:	2102      	movs	r1, #2
 8002e0c:	f855 3b0c 	ldr.w	r3, [r5], #12
 8002e10:	4620      	mov	r0, r4
 8002e12:	68df      	ldr	r7, [r3, #12]
 8002e14:	e895 000c 	ldmia.w	r5, {r2, r3}
 8002e18:	47b8      	blx	r7
 8002e1a:	b168      	cbz	r0, 8002e38 <_ZN5esp329TcpClient14CheckWifiStateEv+0x7c>
 8002e1c:	4f1d      	ldr	r7, [pc, #116]	; (8002e94 <_ZN5esp329TcpClient14CheckWifiStateEv+0xd8>)
 8002e1e:	783b      	ldrb	r3, [r7, #0]
 8002e20:	3301      	adds	r3, #1
 8002e22:	b2db      	uxtb	r3, r3
 8002e24:	2b02      	cmp	r3, #2
 8002e26:	703b      	strb	r3, [r7, #0]
 8002e28:	d825      	bhi.n	8002e76 <_ZN5esp329TcpClient14CheckWifiStateEv+0xba>
 8002e2a:	2201      	movs	r2, #1
 8002e2c:	f44f 717a 	mov.w	r1, #1000	; 0x3e8
 8002e30:	f104 0030 	add.w	r0, r4, #48	; 0x30
 8002e34:	f7ff fa2f 	bl	8002296 <_ZN4core4Task5startEml>
 8002e38:	6823      	ldr	r3, [r4, #0]
 8002e3a:	2100      	movs	r1, #0
 8002e3c:	68de      	ldr	r6, [r3, #12]
 8002e3e:	4620      	mov	r0, r4
 8002e40:	e895 000c 	ldmia.w	r5, {r2, r3}
 8002e44:	47b0      	blx	r6
 8002e46:	b110      	cbz	r0, 8002e4e <_ZN5esp329TcpClient14CheckWifiStateEv+0x92>
 8002e48:	4620      	mov	r0, r4
 8002e4a:	f000 fa3b 	bl	80032c4 <_ZN5esp329TcpClient15checkWifiState_Ev>
 8002e4e:	6823      	ldr	r3, [r4, #0]
 8002e50:	f8cd 8010 	str.w	r8, [sp, #16]
 8002e54:	2500      	movs	r5, #0
 8002e56:	68de      	ldr	r6, [r3, #12]
 8002e58:	9505      	str	r5, [sp, #20]
 8002e5a:	ab06      	add	r3, sp, #24
 8002e5c:	e913 000c 	ldmdb	r3, {r2, r3}
 8002e60:	2103      	movs	r1, #3
 8002e62:	4620      	mov	r0, r4
 8002e64:	47b0      	blx	r6
 8002e66:	7d23      	ldrb	r3, [r4, #20]
 8002e68:	2bff      	cmp	r3, #255	; 0xff
 8002e6a:	bf04      	itt	eq
 8002e6c:	4b09      	ldreq	r3, [pc, #36]	; (8002e94 <_ZN5esp329TcpClient14CheckWifiStateEv+0xd8>)
 8002e6e:	701d      	strbeq	r5, [r3, #0]
 8002e70:	b006      	add	sp, #24
 8002e72:	e8bd 81f0 	ldmia.w	sp!, {r4, r5, r6, r7, r8, pc}
 8002e76:	f7ff fd4d 	bl	8002914 <_ZN5esp326Driver8instanceEv>
 8002e7a:	f7ff fec9 	bl	8002c10 <_ZN5esp326Driver6rebootEv>
 8002e7e:	e9c4 8601 	strd	r8, r6, [r4, #4]
 8002e82:	703e      	strb	r6, [r7, #0]
 8002e84:	e7d8      	b.n	8002e38 <_ZN5esp329TcpClient14CheckWifiStateEv+0x7c>
 8002e86:	bf00      	nop
 8002e88:	08005f82 	.word	0x08005f82
 8002e8c:	08002f61 	.word	0x08002f61
 8002e90:	08002e9d 	.word	0x08002e9d
 8002e94:	20002bb4 	.word	0x20002bb4
 8002e98:	08002bd9 	.word	0x08002bd9

08002e9c <_ZN5esp329TcpClient11ConnectWifiEv>:
 8002e9c:	e92d 41ff 	stmdb	sp!, {r0, r1, r2, r3, r4, r5, r6, r7, r8, lr}
 8002ea0:	7d03      	ldrb	r3, [r0, #20]
 8002ea2:	2bfe      	cmp	r3, #254	; 0xfe
 8002ea4:	4604      	mov	r4, r0
 8002ea6:	d107      	bne.n	8002eb8 <_ZN5esp329TcpClient11ConnectWifiEv+0x1c>
 8002ea8:	f7fe fde4 	bl	8001a74 <_ZN7console10Controller8instanceEv>
 8002eac:	4928      	ldr	r1, [pc, #160]	; (8002f50 <_ZN5esp329TcpClient11ConnectWifiEv+0xb4>)
 8002eae:	f7fe f8f0 	bl	8001092 <_ZN7console10Controller6printfEPKcz>
 8002eb2:	4620      	mov	r0, r4
 8002eb4:	f000 fa0e 	bl	80032d4 <_ZN5esp329TcpClient14connectRouter_Ev>
 8002eb8:	6823      	ldr	r3, [r4, #0]
 8002eba:	4a26      	ldr	r2, [pc, #152]	; (8002f54 <_ZN5esp329TcpClient11ConnectWifiEv+0xb8>)
 8002ebc:	68dd      	ldr	r5, [r3, #12]
 8002ebe:	4b25      	ldr	r3, [pc, #148]	; (8002f54 <_ZN5esp329TcpClient11ConnectWifiEv+0xb8>)
 8002ec0:	9300      	str	r3, [sp, #0]
 8002ec2:	2600      	movs	r6, #0
 8002ec4:	4633      	mov	r3, r6
 8002ec6:	2101      	movs	r1, #1
 8002ec8:	9601      	str	r6, [sp, #4]
 8002eca:	4620      	mov	r0, r4
 8002ecc:	47a8      	blx	r5
 8002ece:	4625      	mov	r5, r4
 8002ed0:	2102      	movs	r1, #2
 8002ed2:	f855 3b0c 	ldr.w	r3, [r5], #12
 8002ed6:	f8df 8084 	ldr.w	r8, [pc, #132]	; 8002f5c <_ZN5esp329TcpClient11ConnectWifiEv+0xc0>
 8002eda:	68df      	ldr	r7, [r3, #12]
 8002edc:	4620      	mov	r0, r4
 8002ede:	e895 000c 	ldmia.w	r5, {r2, r3}
 8002ee2:	47b8      	blx	r7
 8002ee4:	b168      	cbz	r0, 8002f02 <_ZN5esp329TcpClient11ConnectWifiEv+0x66>
 8002ee6:	4f1c      	ldr	r7, [pc, #112]	; (8002f58 <_ZN5esp329TcpClient11ConnectWifiEv+0xbc>)
 8002ee8:	783b      	ldrb	r3, [r7, #0]
 8002eea:	3301      	adds	r3, #1
 8002eec:	b2db      	uxtb	r3, r3
 8002eee:	2b02      	cmp	r3, #2
 8002ef0:	703b      	strb	r3, [r7, #0]
 8002ef2:	d825      	bhi.n	8002f40 <_ZN5esp329TcpClient11ConnectWifiEv+0xa4>
 8002ef4:	2201      	movs	r2, #1
 8002ef6:	f44f 717a 	mov.w	r1, #1000	; 0x3e8
 8002efa:	f104 0030 	add.w	r0, r4, #48	; 0x30
 8002efe:	f7ff f9ca 	bl	8002296 <_ZN4core4Task5startEml>
 8002f02:	6823      	ldr	r3, [r4, #0]
 8002f04:	2100      	movs	r1, #0
 8002f06:	68de      	ldr	r6, [r3, #12]
 8002f08:	4620      	mov	r0, r4
 8002f0a:	e895 000c 	ldmia.w	r5, {r2, r3}
 8002f0e:	47b0      	blx	r6
 8002f10:	b110      	cbz	r0, 8002f18 <_ZN5esp329TcpClient11ConnectWifiEv+0x7c>
 8002f12:	4620      	mov	r0, r4
 8002f14:	f000 f9de 	bl	80032d4 <_ZN5esp329TcpClient14connectRouter_Ev>
 8002f18:	6823      	ldr	r3, [r4, #0]
 8002f1a:	f8cd 8008 	str.w	r8, [sp, #8]
 8002f1e:	2500      	movs	r5, #0
 8002f20:	68de      	ldr	r6, [r3, #12]
 8002f22:	9503      	str	r5, [sp, #12]
 8002f24:	ab04      	add	r3, sp, #16
 8002f26:	e913 000c 	ldmdb	r3, {r2, r3}
 8002f2a:	2103      	movs	r1, #3
 8002f2c:	4620      	mov	r0, r4
 8002f2e:	47b0      	blx	r6
 8002f30:	7d23      	ldrb	r3, [r4, #20]
 8002f32:	2bff      	cmp	r3, #255	; 0xff
 8002f34:	bf04      	itt	eq
 8002f36:	4b08      	ldreq	r3, [pc, #32]	; (8002f58 <_ZN5esp329TcpClient11ConnectWifiEv+0xbc>)
 8002f38:	701d      	strbeq	r5, [r3, #0]
 8002f3a:	b004      	add	sp, #16
 8002f3c:	e8bd 81f0 	ldmia.w	sp!, {r4, r5, r6, r7, r8, pc}
 8002f40:	f7ff fce8 	bl	8002914 <_ZN5esp326Driver8instanceEv>
 8002f44:	f7ff fe64 	bl	8002c10 <_ZN5esp326Driver6rebootEv>
 8002f48:	e9c4 8601 	strd	r8, r6, [r4, #4]
 8002f4c:	703e      	strb	r6, [r7, #0]
 8002f4e:	e7d8      	b.n	8002f02 <_ZN5esp329TcpClient11ConnectWifiEv+0x66>
 8002f50:	08005f9a 	.word	0x08005f9a
 8002f54:	08002f61 	.word	0x08002f61
 8002f58:	20002bb2 	.word	0x20002bb2
 8002f5c:	08002bd9 	.word	0x08002bd9

08002f60 <_ZN5esp329TcpClient10ConnectingEv>:
 8002f60:	e92d 41ff 	stmdb	sp!, {r0, r1, r2, r3, r4, r5, r6, r7, r8, lr}
 8002f64:	7d03      	ldrb	r3, [r0, #20]
 8002f66:	2bfe      	cmp	r3, #254	; 0xfe
 8002f68:	4604      	mov	r4, r0
 8002f6a:	d107      	bne.n	8002f7c <_ZN5esp329TcpClient10ConnectingEv+0x1c>
 8002f6c:	f7fe fd82 	bl	8001a74 <_ZN7console10Controller8instanceEv>
 8002f70:	4928      	ldr	r1, [pc, #160]	; (8003014 <_ZN5esp329TcpClient10ConnectingEv+0xb4>)
 8002f72:	f7fe f88e 	bl	8001092 <_ZN7console10Controller6printfEPKcz>
 8002f76:	4620      	mov	r0, r4
 8002f78:	f000 f9b4 	bl	80032e4 <_ZN5esp329TcpClient14connectServer_Ev>
 8002f7c:	6823      	ldr	r3, [r4, #0]
 8002f7e:	4a26      	ldr	r2, [pc, #152]	; (8003018 <_ZN5esp329TcpClient10ConnectingEv+0xb8>)
 8002f80:	68dd      	ldr	r5, [r3, #12]
 8002f82:	4b25      	ldr	r3, [pc, #148]	; (8003018 <_ZN5esp329TcpClient10ConnectingEv+0xb8>)
 8002f84:	9300      	str	r3, [sp, #0]
 8002f86:	2600      	movs	r6, #0
 8002f88:	4633      	mov	r3, r6
 8002f8a:	2101      	movs	r1, #1
 8002f8c:	9601      	str	r6, [sp, #4]
 8002f8e:	4620      	mov	r0, r4
 8002f90:	47a8      	blx	r5
 8002f92:	4625      	mov	r5, r4
 8002f94:	2102      	movs	r1, #2
 8002f96:	f855 3b0c 	ldr.w	r3, [r5], #12
 8002f9a:	f8df 8084 	ldr.w	r8, [pc, #132]	; 8003020 <_ZN5esp329TcpClient10ConnectingEv+0xc0>
 8002f9e:	68df      	ldr	r7, [r3, #12]
 8002fa0:	4620      	mov	r0, r4
 8002fa2:	e895 000c 	ldmia.w	r5, {r2, r3}
 8002fa6:	47b8      	blx	r7
 8002fa8:	b168      	cbz	r0, 8002fc6 <_ZN5esp329TcpClient10ConnectingEv+0x66>
 8002faa:	4f1c      	ldr	r7, [pc, #112]	; (800301c <_ZN5esp329TcpClient10ConnectingEv+0xbc>)
 8002fac:	783b      	ldrb	r3, [r7, #0]
 8002fae:	3301      	adds	r3, #1
 8002fb0:	b2db      	uxtb	r3, r3
 8002fb2:	2b02      	cmp	r3, #2
 8002fb4:	703b      	strb	r3, [r7, #0]
 8002fb6:	d825      	bhi.n	8003004 <_ZN5esp329TcpClient10ConnectingEv+0xa4>
 8002fb8:	2201      	movs	r2, #1
 8002fba:	f44f 717a 	mov.w	r1, #1000	; 0x3e8
 8002fbe:	f104 0030 	add.w	r0, r4, #48	; 0x30
 8002fc2:	f7ff f968 	bl	8002296 <_ZN4core4Task5startEml>
 8002fc6:	6823      	ldr	r3, [r4, #0]
 8002fc8:	2100      	movs	r1, #0
 8002fca:	68de      	ldr	r6, [r3, #12]
 8002fcc:	4620      	mov	r0, r4
 8002fce:	e895 000c 	ldmia.w	r5, {r2, r3}
 8002fd2:	47b0      	blx	r6
 8002fd4:	b110      	cbz	r0, 8002fdc <_ZN5esp329TcpClient10ConnectingEv+0x7c>
 8002fd6:	4620      	mov	r0, r4
 8002fd8:	f000 f984 	bl	80032e4 <_ZN5esp329TcpClient14connectServer_Ev>
 8002fdc:	6823      	ldr	r3, [r4, #0]
 8002fde:	f8cd 8008 	str.w	r8, [sp, #8]
 8002fe2:	2500      	movs	r5, #0
 8002fe4:	68de      	ldr	r6, [r3, #12]
 8002fe6:	9503      	str	r5, [sp, #12]
 8002fe8:	ab04      	add	r3, sp, #16
 8002fea:	e913 000c 	ldmdb	r3, {r2, r3}
 8002fee:	2103      	movs	r1, #3
 8002ff0:	4620      	mov	r0, r4
 8002ff2:	47b0      	blx	r6
 8002ff4:	7d23      	ldrb	r3, [r4, #20]
 8002ff6:	2bff      	cmp	r3, #255	; 0xff
 8002ff8:	bf04      	itt	eq
 8002ffa:	4b08      	ldreq	r3, [pc, #32]	; (800301c <_ZN5esp329TcpClient10ConnectingEv+0xbc>)
 8002ffc:	701d      	strbeq	r5, [r3, #0]
 8002ffe:	b004      	add	sp, #16
 8003000:	e8bd 81f0 	ldmia.w	sp!, {r4, r5, r6, r7, r8, pc}
 8003004:	f7ff fc86 	bl	8002914 <_ZN5esp326Driver8instanceEv>
 8003008:	f7ff fe02 	bl	8002c10 <_ZN5esp326Driver6rebootEv>
 800300c:	e9c4 8601 	strd	r8, r6, [r4, #4]
 8003010:	703e      	strb	r6, [r7, #0]
 8003012:	e7d8      	b.n	8002fc6 <_ZN5esp329TcpClient10ConnectingEv+0x66>
 8003014:	08005fae 	.word	0x08005fae
 8003018:	0800312d 	.word	0x0800312d
 800301c:	20002bb0 	.word	0x20002bb0
 8003020:	08002bd9 	.word	0x08002bd9

08003024 <_ZN5esp329TcpClient11WritingDataEv>:
 8003024:	b57f      	push	{r0, r1, r2, r3, r4, r5, r6, lr}
 8003026:	7d03      	ldrb	r3, [r0, #20]
 8003028:	2bfe      	cmp	r3, #254	; 0xfe
 800302a:	4604      	mov	r4, r0
 800302c:	d10a      	bne.n	8003044 <_ZN5esp329TcpClient11WritingDataEv+0x20>
 800302e:	f7fe fd21 	bl	8001a74 <_ZN7console10Controller8instanceEv>
 8003032:	4920      	ldr	r1, [pc, #128]	; (80030b4 <_ZN5esp329TcpClient11WritingDataEv+0x90>)
 8003034:	f7fe f82d 	bl	8001092 <_ZN7console10Controller6printfEPKcz>
 8003038:	2201      	movs	r2, #1
 800303a:	21c8      	movs	r1, #200	; 0xc8
 800303c:	f104 0030 	add.w	r0, r4, #48	; 0x30
 8003040:	f7ff f929 	bl	8002296 <_ZN4core4Task5startEml>
 8003044:	4625      	mov	r5, r4
 8003046:	2100      	movs	r1, #0
 8003048:	f855 3b0c 	ldr.w	r3, [r5], #12
 800304c:	4620      	mov	r0, r4
 800304e:	68de      	ldr	r6, [r3, #12]
 8003050:	e895 000c 	ldmia.w	r5, {r2, r3}
 8003054:	47b0      	blx	r6
 8003056:	b130      	cbz	r0, 8003066 <_ZN5esp329TcpClient11WritingDataEv+0x42>
 8003058:	f8b4 25a0 	ldrh.w	r2, [r4, #1440]	; 0x5a0
 800305c:	f8d4 159c 	ldr.w	r1, [r4, #1436]	; 0x59c
 8003060:	4620      	mov	r0, r4
 8003062:	f000 f959 	bl	8003318 <_ZN5esp329TcpClient10writeData_EPht>
 8003066:	6823      	ldr	r3, [r4, #0]
 8003068:	4a13      	ldr	r2, [pc, #76]	; (80030b8 <_ZN5esp329TcpClient11WritingDataEv+0x94>)
 800306a:	68de      	ldr	r6, [r3, #12]
 800306c:	4b12      	ldr	r3, [pc, #72]	; (80030b8 <_ZN5esp329TcpClient11WritingDataEv+0x94>)
 800306e:	9300      	str	r3, [sp, #0]
 8003070:	2300      	movs	r3, #0
 8003072:	9301      	str	r3, [sp, #4]
 8003074:	2101      	movs	r1, #1
 8003076:	4620      	mov	r0, r4
 8003078:	47b0      	blx	r6
 800307a:	6823      	ldr	r3, [r4, #0]
 800307c:	2102      	movs	r1, #2
 800307e:	68de      	ldr	r6, [r3, #12]
 8003080:	4620      	mov	r0, r4
 8003082:	e895 000c 	ldmia.w	r5, {r2, r3}
 8003086:	47b0      	blx	r6
 8003088:	b118      	cbz	r0, 8003092 <_ZN5esp329TcpClient11WritingDataEv+0x6e>
 800308a:	f7ff fc43 	bl	8002914 <_ZN5esp326Driver8instanceEv>
 800308e:	f7ff fdbf 	bl	8002c10 <_ZN5esp326Driver6rebootEv>
 8003092:	6823      	ldr	r3, [r4, #0]
 8003094:	68dd      	ldr	r5, [r3, #12]
 8003096:	4b09      	ldr	r3, [pc, #36]	; (80030bc <_ZN5esp329TcpClient11WritingDataEv+0x98>)
 8003098:	9302      	str	r3, [sp, #8]
 800309a:	2300      	movs	r3, #0
 800309c:	9303      	str	r3, [sp, #12]
 800309e:	ab04      	add	r3, sp, #16
 80030a0:	e913 000c 	ldmdb	r3, {r2, r3}
 80030a4:	2103      	movs	r1, #3
 80030a6:	4620      	mov	r0, r4
 80030a8:	46ac      	mov	ip, r5
 80030aa:	b004      	add	sp, #16
 80030ac:	e8bd 4070 	ldmia.w	sp!, {r4, r5, r6, lr}
 80030b0:	4760      	bx	ip
 80030b2:	bf00      	nop
 80030b4:	08005fc0 	.word	0x08005fc0
 80030b8:	0800312d 	.word	0x0800312d
 80030bc:	08002bd9 	.word	0x08002bd9

080030c0 <_ZN4core6Strand4doneEv>:
 80030c0:	2300      	movs	r3, #0
 80030c2:	b510      	push	{r4, lr}
 80030c4:	7303      	strb	r3, [r0, #12]
 80030c6:	6883      	ldr	r3, [r0, #8]
 80030c8:	e9d3 2303 	ldrd	r2, r3, [r3, #12]
 80030cc:	429a      	cmp	r2, r3
 80030ce:	4604      	mov	r4, r0
 80030d0:	d02a      	beq.n	8003128 <_ZN4core6Strand4doneEv+0x68>
 80030d2:	f7fe fc6d 	bl	80019b0 <_ZN4core6Engine8instanceEv>
 80030d6:	f8b0 380c 	ldrh.w	r3, [r0, #2060]	; 0x80c
 80030da:	f8d0 281c 	ldr.w	r2, [r0, #2076]	; 0x81c
 80030de:	fa12 f383 	uxtah	r3, r2, r3
 80030e2:	f8d0 2818 	ldr.w	r2, [r0, #2072]	; 0x818
 80030e6:	1a9b      	subs	r3, r3, r2
 80030e8:	f8b0 280c 	ldrh.w	r2, [r0, #2060]	; 0x80c
 80030ec:	b29b      	uxth	r3, r3
 80030ee:	b292      	uxth	r2, r2
 80030f0:	4293      	cmp	r3, r2
 80030f2:	bf82      	ittt	hi
 80030f4:	f8b0 280c 	ldrhhi.w	r2, [r0, #2060]	; 0x80c
 80030f8:	1a9b      	subhi	r3, r3, r2
 80030fa:	b29b      	uxthhi	r3, r3
 80030fc:	b193      	cbz	r3, 8003124 <_ZN4core6Strand4doneEv+0x64>
 80030fe:	7e22      	ldrb	r2, [r4, #24]
 8003100:	b672      	cpsid	i
 8003102:	f8d0 3818 	ldr.w	r3, [r0, #2072]	; 0x818
 8003106:	701a      	strb	r2, [r3, #0]
 8003108:	f8d0 3818 	ldr.w	r3, [r0, #2072]	; 0x818
 800310c:	f8d0 2814 	ldr.w	r2, [r0, #2068]	; 0x814
 8003110:	3301      	adds	r3, #1
 8003112:	4293      	cmp	r3, r2
 8003114:	f8c0 3818 	str.w	r3, [r0, #2072]	; 0x818
 8003118:	bf04      	itt	eq
 800311a:	f8d0 3810 	ldreq.w	r3, [r0, #2064]	; 0x810
 800311e:	f8c0 3818 	streq.w	r3, [r0, #2072]	; 0x818
 8003122:	b662      	cpsie	i
 8003124:	2301      	movs	r3, #1
 8003126:	7323      	strb	r3, [r4, #12]
 8003128:	bd10      	pop	{r4, pc}
	...

0800312c <_ZN5esp329TcpClient9ConnectedEv>:
 800312c:	b5f0      	push	{r4, r5, r6, r7, lr}
 800312e:	7d03      	ldrb	r3, [r0, #20]
 8003130:	2bfe      	cmp	r3, #254	; 0xfe
 8003132:	b087      	sub	sp, #28
 8003134:	4604      	mov	r4, r0
 8003136:	d10f      	bne.n	8003158 <_ZN5esp329TcpClient9ConnectedEv+0x2c>
 8003138:	f7fe fc9c 	bl	8001a74 <_ZN7console10Controller8instanceEv>
 800313c:	4935      	ldr	r1, [pc, #212]	; (8003214 <_ZN5esp329TcpClient9ConnectedEv+0xe8>)
 800313e:	f7fd ffa8 	bl	8001092 <_ZN7console10Controller6printfEPKcz>
 8003142:	f504 6094 	add.w	r0, r4, #1184	; 0x4a0
 8003146:	f7ff ffbb 	bl	80030c0 <_ZN4core6Strand4doneEv>
 800314a:	2201      	movs	r2, #1
 800314c:	f44f 717a 	mov.w	r1, #1000	; 0x3e8
 8003150:	f104 0030 	add.w	r0, r4, #48	; 0x30
 8003154:	f7ff f89f 	bl	8002296 <_ZN4core4Task5startEml>
 8003158:	4625      	mov	r5, r4
 800315a:	2100      	movs	r1, #0
 800315c:	f855 3b0c 	ldr.w	r3, [r5], #12
 8003160:	4620      	mov	r0, r4
 8003162:	68de      	ldr	r6, [r3, #12]
 8003164:	e895 000c 	ldmia.w	r5, {r2, r3}
 8003168:	47b0      	blx	r6
 800316a:	b150      	cbz	r0, 8003182 <_ZN5esp329TcpClient9ConnectedEv+0x56>
 800316c:	f8d4 1598 	ldr.w	r1, [r4, #1432]	; 0x598
 8003170:	9101      	str	r1, [sp, #4]
 8003172:	4608      	mov	r0, r1
 8003174:	f7fd f834 	bl	80001e0 <strlen>
 8003178:	9901      	ldr	r1, [sp, #4]
 800317a:	b282      	uxth	r2, r0
 800317c:	4620      	mov	r0, r4
 800317e:	f000 f8d1 	bl	8003324 <_ZN5esp329TcpClient15sendData2ServerEPht>
 8003182:	6823      	ldr	r3, [r4, #0]
 8003184:	2106      	movs	r1, #6
 8003186:	68de      	ldr	r6, [r3, #12]
 8003188:	4620      	mov	r0, r4
 800318a:	e895 000c 	ldmia.w	r5, {r2, r3}
 800318e:	47b0      	blx	r6
 8003190:	b120      	cbz	r0, 800319c <_ZN5esp329TcpClient9ConnectedEv+0x70>
 8003192:	f8b4 15a0 	ldrh.w	r1, [r4, #1440]	; 0x5a0
 8003196:	4620      	mov	r0, r4
 8003198:	f000 f8ac 	bl	80032f4 <_ZN5esp329TcpClient12requestSend_Et>
 800319c:	6823      	ldr	r3, [r4, #0]
 800319e:	4a1e      	ldr	r2, [pc, #120]	; (8003218 <_ZN5esp329TcpClient9ConnectedEv+0xec>)
 80031a0:	68df      	ldr	r7, [r3, #12]
 80031a2:	4b1d      	ldr	r3, [pc, #116]	; (8003218 <_ZN5esp329TcpClient9ConnectedEv+0xec>)
 80031a4:	9302      	str	r3, [sp, #8]
 80031a6:	2600      	movs	r6, #0
 80031a8:	4633      	mov	r3, r6
 80031aa:	2101      	movs	r1, #1
 80031ac:	9603      	str	r6, [sp, #12]
 80031ae:	4620      	mov	r0, r4
 80031b0:	47b8      	blx	r7
 80031b2:	6823      	ldr	r3, [r4, #0]
 80031b4:	2102      	movs	r1, #2
 80031b6:	68df      	ldr	r7, [r3, #12]
 80031b8:	4620      	mov	r0, r4
 80031ba:	e895 000c 	ldmia.w	r5, {r2, r3}
 80031be:	47b8      	blx	r7
 80031c0:	4f16      	ldr	r7, [pc, #88]	; (800321c <_ZN5esp329TcpClient9ConnectedEv+0xf0>)
 80031c2:	b168      	cbz	r0, 80031e0 <_ZN5esp329TcpClient9ConnectedEv+0xb4>
 80031c4:	4d16      	ldr	r5, [pc, #88]	; (8003220 <_ZN5esp329TcpClient9ConnectedEv+0xf4>)
 80031c6:	782b      	ldrb	r3, [r5, #0]
 80031c8:	3301      	adds	r3, #1
 80031ca:	b2db      	uxtb	r3, r3
 80031cc:	2b02      	cmp	r3, #2
 80031ce:	702b      	strb	r3, [r5, #0]
 80031d0:	d818      	bhi.n	8003204 <_ZN5esp329TcpClient9ConnectedEv+0xd8>
 80031d2:	2201      	movs	r2, #1
 80031d4:	f44f 717a 	mov.w	r1, #1000	; 0x3e8
 80031d8:	f104 0030 	add.w	r0, r4, #48	; 0x30
 80031dc:	f7ff f85b 	bl	8002296 <_ZN4core4Task5startEml>
 80031e0:	6823      	ldr	r3, [r4, #0]
 80031e2:	9704      	str	r7, [sp, #16]
 80031e4:	2500      	movs	r5, #0
 80031e6:	68de      	ldr	r6, [r3, #12]
 80031e8:	9505      	str	r5, [sp, #20]
 80031ea:	ab06      	add	r3, sp, #24
 80031ec:	e913 000c 	ldmdb	r3, {r2, r3}
 80031f0:	2103      	movs	r1, #3
 80031f2:	4620      	mov	r0, r4
 80031f4:	47b0      	blx	r6
 80031f6:	7d23      	ldrb	r3, [r4, #20]
 80031f8:	2bff      	cmp	r3, #255	; 0xff
 80031fa:	bf04      	itt	eq
 80031fc:	4b08      	ldreq	r3, [pc, #32]	; (8003220 <_ZN5esp329TcpClient9ConnectedEv+0xf4>)
 80031fe:	701d      	strbeq	r5, [r3, #0]
 8003200:	b007      	add	sp, #28
 8003202:	bdf0      	pop	{r4, r5, r6, r7, pc}
 8003204:	f7ff fb86 	bl	8002914 <_ZN5esp326Driver8instanceEv>
 8003208:	f7ff fd02 	bl	8002c10 <_ZN5esp326Driver6rebootEv>
 800320c:	e9c4 7601 	strd	r7, r6, [r4, #4]
 8003210:	702e      	strb	r6, [r5, #0]
 8003212:	e7e5      	b.n	80031e0 <_ZN5esp329TcpClient9ConnectedEv+0xb4>
 8003214:	08005fd4 	.word	0x08005fd4
 8003218:	08003025 	.word	0x08003025
 800321c:	08002bd9 	.word	0x08002bd9
 8003220:	20002bb5 	.word	0x20002bb5

08003224 <_ZN5esp329TcpClientD1Ev>:
 8003224:	4770      	bx	lr

08003226 <_ZN5esp329TcpClientD0Ev>:
 8003226:	b510      	push	{r4, lr}
 8003228:	f44f 61b5 	mov.w	r1, #1448	; 0x5a8
 800322c:	4604      	mov	r4, r0
 800322e:	f001 f85f 	bl	80042f0 <_ZdlPvj>
 8003232:	4620      	mov	r0, r4
 8003234:	bd10      	pop	{r4, pc}

08003236 <__tcf_5>:
 8003236:	4770      	bx	lr

08003238 <_ZN4core10FixedEventIhE4postERKh.isra.0>:
 8003238:	b537      	push	{r0, r1, r2, r4, r5, lr}
 800323a:	4604      	mov	r4, r0
 800323c:	9101      	str	r1, [sp, #4]
 800323e:	f7fe fbb7 	bl	80019b0 <_ZN4core6Engine8instanceEv>
 8003242:	6883      	ldr	r3, [r0, #8]
 8003244:	9a01      	ldr	r2, [sp, #4]
 8003246:	681d      	ldr	r5, [r3, #0]
 8003248:	7821      	ldrb	r1, [r4, #0]
 800324a:	2301      	movs	r3, #1
 800324c:	3008      	adds	r0, #8
 800324e:	46ac      	mov	ip, r5
 8003250:	b003      	add	sp, #12
 8003252:	e8bd 4030 	ldmia.w	sp!, {r4, r5, lr}
 8003256:	4760      	bx	ip

08003258 <_ZN5esp329TcpClient4initEv>:
 8003258:	b513      	push	{r0, r1, r4, lr}
 800325a:	4604      	mov	r4, r0
 800325c:	f7ff fb5a 	bl	8002914 <_ZN5esp326Driver8instanceEv>
 8003260:	6803      	ldr	r3, [r0, #0]
 8003262:	681b      	ldr	r3, [r3, #0]
 8003264:	4798      	blx	r3
 8003266:	f7ff fb55 	bl	8002914 <_ZN5esp326Driver8instanceEv>
 800326a:	f104 0350 	add.w	r3, r4, #80	; 0x50
 800326e:	6643      	str	r3, [r0, #100]	; 0x64
 8003270:	f7ff fb50 	bl	8002914 <_ZN5esp326Driver8instanceEv>
 8003274:	f104 0364 	add.w	r3, r4, #100	; 0x64
 8003278:	6683      	str	r3, [r0, #104]	; 0x68
 800327a:	f7ff fb4b 	bl	8002914 <_ZN5esp326Driver8instanceEv>
 800327e:	4a08      	ldr	r2, [pc, #32]	; (80032a0 <_ZN5esp329TcpClient4initEv+0x48>)
 8003280:	9200      	str	r2, [sp, #0]
 8003282:	f104 0378 	add.w	r3, r4, #120	; 0x78
 8003286:	2200      	movs	r2, #0
 8003288:	66c3      	str	r3, [r0, #108]	; 0x6c
 800328a:	9201      	str	r2, [sp, #4]
 800328c:	6823      	ldr	r3, [r4, #0]
 800328e:	aa02      	add	r2, sp, #8
 8003290:	e912 0006 	ldmdb	r2, {r1, r2}
 8003294:	691b      	ldr	r3, [r3, #16]
 8003296:	4620      	mov	r0, r4
 8003298:	b002      	add	sp, #8
 800329a:	e8bd 4010 	ldmia.w	sp!, {r4, lr}
 800329e:	4718      	bx	r3
 80032a0:	08002bd9 	.word	0x08002bd9

080032a4 <_ZN5esp329TcpClient11turnOffATE_Ev>:
 80032a4:	4902      	ldr	r1, [pc, #8]	; (80032b0 <_ZN5esp329TcpClient11turnOffATE_Ev+0xc>)
 80032a6:	2204      	movs	r2, #4
 80032a8:	f500 609e 	add.w	r0, r0, #1264	; 0x4f0
 80032ac:	f7ff bc08 	b.w	8002ac0 <_ZN5esp328EspEvent4postEPht>
 80032b0:	08005fe5 	.word	0x08005fe5

080032b4 <_ZN5esp329TcpClient12setWifiMode_Ev>:
 80032b4:	4902      	ldr	r1, [pc, #8]	; (80032c0 <_ZN5esp329TcpClient12setWifiMode_Ev+0xc>)
 80032b6:	220b      	movs	r2, #11
 80032b8:	f500 60a0 	add.w	r0, r0, #1280	; 0x500
 80032bc:	f7ff bc00 	b.w	8002ac0 <_ZN5esp328EspEvent4postEPht>
 80032c0:	08005fea 	.word	0x08005fea

080032c4 <_ZN5esp329TcpClient15checkWifiState_Ev>:
 80032c4:	4902      	ldr	r1, [pc, #8]	; (80032d0 <_ZN5esp329TcpClient15checkWifiState_Ev+0xc>)
 80032c6:	220b      	movs	r2, #11
 80032c8:	f500 60a2 	add.w	r0, r0, #1296	; 0x510
 80032cc:	f7ff bbf8 	b.w	8002ac0 <_ZN5esp328EspEvent4postEPht>
 80032d0:	08005ff6 	.word	0x08005ff6

080032d4 <_ZN5esp329TcpClient14connectRouter_Ev>:
 80032d4:	4902      	ldr	r1, [pc, #8]	; (80032e0 <_ZN5esp329TcpClient14connectRouter_Ev+0xc>)
 80032d6:	221f      	movs	r2, #31
 80032d8:	f500 60a4 	add.w	r0, r0, #1312	; 0x520
 80032dc:	f7ff bbf0 	b.w	8002ac0 <_ZN5esp328EspEvent4postEPht>
 80032e0:	08006002 	.word	0x08006002

080032e4 <_ZN5esp329TcpClient14connectServer_Ev>:
 80032e4:	4902      	ldr	r1, [pc, #8]	; (80032f0 <_ZN5esp329TcpClient14connectServer_Ev+0xc>)
 80032e6:	2227      	movs	r2, #39	; 0x27
 80032e8:	f500 60a8 	add.w	r0, r0, #1344	; 0x540
 80032ec:	f7ff bbe8 	b.w	8002ac0 <_ZN5esp328EspEvent4postEPht>
 80032f0:	08006022 	.word	0x08006022

080032f4 <_ZN5esp329TcpClient12requestSend_Et>:
 80032f4:	b510      	push	{r4, lr}
 80032f6:	b086      	sub	sp, #24
 80032f8:	4604      	mov	r4, r0
 80032fa:	460a      	mov	r2, r1
 80032fc:	a801      	add	r0, sp, #4
 80032fe:	4905      	ldr	r1, [pc, #20]	; (8003314 <_ZN5esp329TcpClient12requestSend_Et+0x20>)
 8003300:	f002 f93a 	bl	8005578 <siprintf>
 8003304:	a901      	add	r1, sp, #4
 8003306:	b282      	uxth	r2, r0
 8003308:	f504 60aa 	add.w	r0, r4, #1360	; 0x550
 800330c:	f7ff fbd8 	bl	8002ac0 <_ZN5esp328EspEvent4postEPht>
 8003310:	b006      	add	sp, #24
 8003312:	bd10      	pop	{r4, pc}
 8003314:	0800604a 	.word	0x0800604a

08003318 <_ZN5esp329TcpClient10writeData_EPht>:
 8003318:	3202      	adds	r2, #2
 800331a:	b292      	uxth	r2, r2
 800331c:	f500 60ac 	add.w	r0, r0, #1376	; 0x560
 8003320:	f7ff bbce 	b.w	8002ac0 <_ZN5esp328EspEvent4postEPht>

08003324 <_ZN5esp329TcpClient15sendData2ServerEPht>:
 8003324:	b573      	push	{r0, r1, r4, r5, r6, lr}
 8003326:	4604      	mov	r4, r0
 8003328:	f8d0 04a8 	ldr.w	r0, [r0, #1192]	; 0x4a8
 800332c:	f8ad 2000 	strh.w	r2, [sp]
 8003330:	9101      	str	r1, [sp, #4]
 8003332:	6902      	ldr	r2, [r0, #16]
 8003334:	8801      	ldrh	r1, [r0, #0]
 8003336:	1853      	adds	r3, r2, r1
 8003338:	68c2      	ldr	r2, [r0, #12]
 800333a:	1a9b      	subs	r3, r3, r2
 800333c:	b29b      	uxth	r3, r3
 800333e:	4299      	cmp	r1, r3
 8003340:	bf3c      	itt	cc
 8003342:	1a5b      	subcc	r3, r3, r1
 8003344:	b29b      	uxthcc	r3, r3
 8003346:	2b0a      	cmp	r3, #10
 8003348:	d94d      	bls.n	80033e6 <_ZN5esp329TcpClient15sendData2ServerEPht+0xc2>
 800334a:	b672      	cpsid	i
 800334c:	2101      	movs	r1, #1
 800334e:	f8d4 04a8 	ldr.w	r0, [r4, #1192]	; 0x4a8
 8003352:	f7fe f816 	bl	8001382 <_ZN4core5Queue4pushEh>
 8003356:	f894 1574 	ldrb.w	r1, [r4, #1396]	; 0x574
 800335a:	f8d4 04a8 	ldr.w	r0, [r4, #1192]	; 0x4a8
 800335e:	f7fe f810 	bl	8001382 <_ZN4core5Queue4pushEh>
 8003362:	466e      	mov	r6, sp
 8003364:	2500      	movs	r5, #0
 8003366:	f816 1b01 	ldrb.w	r1, [r6], #1
 800336a:	f8d4 04a8 	ldr.w	r0, [r4, #1192]	; 0x4a8
 800336e:	3501      	adds	r5, #1
 8003370:	f7fe f807 	bl	8001382 <_ZN4core5Queue4pushEh>
 8003374:	2d08      	cmp	r5, #8
 8003376:	d1f6      	bne.n	8003366 <_ZN5esp329TcpClient15sendData2ServerEPht+0x42>
 8003378:	b662      	cpsie	i
 800337a:	f894 34ac 	ldrb.w	r3, [r4, #1196]	; 0x4ac
 800337e:	bb93      	cbnz	r3, 80033e6 <_ZN5esp329TcpClient15sendData2ServerEPht+0xc2>
 8003380:	f8d4 34a8 	ldr.w	r3, [r4, #1192]	; 0x4a8
 8003384:	e9d3 2303 	ldrd	r2, r3, [r3, #12]
 8003388:	429a      	cmp	r2, r3
 800338a:	d02c      	beq.n	80033e6 <_ZN5esp329TcpClient15sendData2ServerEPht+0xc2>
 800338c:	f7fe fb10 	bl	80019b0 <_ZN4core6Engine8instanceEv>
 8003390:	f8b0 380c 	ldrh.w	r3, [r0, #2060]	; 0x80c
 8003394:	f8d0 281c 	ldr.w	r2, [r0, #2076]	; 0x81c
 8003398:	fa12 f383 	uxtah	r3, r2, r3
 800339c:	f8d0 2818 	ldr.w	r2, [r0, #2072]	; 0x818
 80033a0:	1a9b      	subs	r3, r3, r2
 80033a2:	f8b0 280c 	ldrh.w	r2, [r0, #2060]	; 0x80c
 80033a6:	b29b      	uxth	r3, r3
 80033a8:	b292      	uxth	r2, r2
 80033aa:	4293      	cmp	r3, r2
 80033ac:	bf82      	ittt	hi
 80033ae:	f8b0 280c 	ldrhhi.w	r2, [r0, #2060]	; 0x80c
 80033b2:	1a9b      	subhi	r3, r3, r2
 80033b4:	b29b      	uxthhi	r3, r3
 80033b6:	b19b      	cbz	r3, 80033e0 <_ZN5esp329TcpClient15sendData2ServerEPht+0xbc>
 80033b8:	f894 24b8 	ldrb.w	r2, [r4, #1208]	; 0x4b8
 80033bc:	b672      	cpsid	i
 80033be:	f8d0 3818 	ldr.w	r3, [r0, #2072]	; 0x818
 80033c2:	701a      	strb	r2, [r3, #0]
 80033c4:	f8d0 3818 	ldr.w	r3, [r0, #2072]	; 0x818
 80033c8:	f8d0 2814 	ldr.w	r2, [r0, #2068]	; 0x814
 80033cc:	3301      	adds	r3, #1
 80033ce:	4293      	cmp	r3, r2
 80033d0:	f8c0 3818 	str.w	r3, [r0, #2072]	; 0x818
 80033d4:	bf04      	itt	eq
 80033d6:	f8d0 3810 	ldreq.w	r3, [r0, #2064]	; 0x810
 80033da:	f8c0 3818 	streq.w	r3, [r0, #2072]	; 0x818
 80033de:	b662      	cpsie	i
 80033e0:	2301      	movs	r3, #1
 80033e2:	f884 34ac 	strb.w	r3, [r4, #1196]	; 0x4ac
 80033e6:	b002      	add	sp, #8
 80033e8:	bd70      	pop	{r4, r5, r6, pc}

080033ea <_ZN5esp329TcpClient26turnOffATEEspEventHandler_EbPht>:
 80033ea:	b507      	push	{r0, r1, r2, lr}
 80033ec:	301c      	adds	r0, #28
 80033ee:	b149      	cbz	r1, 8003404 <_ZN5esp329TcpClient26turnOffATEEspEventHandler_EbPht+0x1a>
 80033f0:	2301      	movs	r3, #1
 80033f2:	f10d 0107 	add.w	r1, sp, #7
 80033f6:	f88d 3007 	strb.w	r3, [sp, #7]
 80033fa:	f7ff ff1d 	bl	8003238 <_ZN4core10FixedEventIhE4postERKh.isra.0>
 80033fe:	b003      	add	sp, #12
 8003400:	f85d fb04 	ldr.w	pc, [sp], #4
 8003404:	2302      	movs	r3, #2
 8003406:	e7f4      	b.n	80033f2 <_ZN5esp329TcpClient26turnOffATEEspEventHandler_EbPht+0x8>

08003408 <_ZN5esp329TcpClient27setWifiModeEspEventHandler_EbPht>:
 8003408:	f7ff bfef 	b.w	80033ea <_ZN5esp329TcpClient26turnOffATEEspEventHandler_EbPht>

0800340c <_ZN5esp329TcpClient30checkWifiStateEspEventHandler_EbPht>:
 800340c:	e92d 41f3 	stmdb	sp!, {r0, r1, r4, r5, r6, r7, r8, lr}
 8003410:	4616      	mov	r6, r2
 8003412:	461f      	mov	r7, r3
 8003414:	b301      	cbz	r1, 8003458 <_ZN5esp329TcpClient30checkWifiStateEspEventHandler_EbPht+0x4c>
 8003416:	f8df 8058 	ldr.w	r8, [pc, #88]	; 8003470 <_ZN5esp329TcpClient30checkWifiStateEspEventHandler_EbPht+0x64>
 800341a:	2107      	movs	r1, #7
 800341c:	f100 051c 	add.w	r5, r0, #28
 8003420:	428f      	cmp	r7, r1
 8003422:	dd21      	ble.n	8003468 <_ZN5esp329TcpClient30checkWifiStateEspEventHandler_EbPht+0x5c>
 8003424:	5c73      	ldrb	r3, [r6, r1]
 8003426:	2b2c      	cmp	r3, #44	; 0x2c
 8003428:	d114      	bne.n	8003454 <_ZN5esp329TcpClient30checkWifiStateEspEventHandler_EbPht+0x48>
 800342a:	1e4c      	subs	r4, r1, #1
 800342c:	4628      	mov	r0, r5
 800342e:	5d33      	ldrb	r3, [r6, r4]
 8003430:	2b32      	cmp	r3, #50	; 0x32
 8003432:	bf0c      	ite	eq
 8003434:	2304      	moveq	r3, #4
 8003436:	2305      	movne	r3, #5
 8003438:	f10d 0107 	add.w	r1, sp, #7
 800343c:	f88d 3007 	strb.w	r3, [sp, #7]
 8003440:	f7ff fefa 	bl	8003238 <_ZN4core10FixedEventIhE4postERKh.isra.0>
 8003444:	f7fe fb16 	bl	8001a74 <_ZN7console10Controller8instanceEv>
 8003448:	5d32      	ldrb	r2, [r6, r4]
 800344a:	4641      	mov	r1, r8
 800344c:	3a30      	subs	r2, #48	; 0x30
 800344e:	f7fd fe20 	bl	8001092 <_ZN7console10Controller6printfEPKcz>
 8003452:	4639      	mov	r1, r7
 8003454:	3101      	adds	r1, #1
 8003456:	e7e3      	b.n	8003420 <_ZN5esp329TcpClient30checkWifiStateEspEventHandler_EbPht+0x14>
 8003458:	2302      	movs	r3, #2
 800345a:	f10d 0107 	add.w	r1, sp, #7
 800345e:	301c      	adds	r0, #28
 8003460:	f88d 3007 	strb.w	r3, [sp, #7]
 8003464:	f7ff fee8 	bl	8003238 <_ZN4core10FixedEventIhE4postERKh.isra.0>
 8003468:	b002      	add	sp, #8
 800346a:	e8bd 81f0 	ldmia.w	sp!, {r4, r5, r6, r7, r8, pc}
 800346e:	bf00      	nop
 8003470:	08006055 	.word	0x08006055

08003474 <_ZN5esp329TcpClient29connectRouterEspEventHandler_EbPht>:
 8003474:	b513      	push	{r0, r1, r4, lr}
 8003476:	4604      	mov	r4, r0
 8003478:	4909      	ldr	r1, [pc, #36]	; (80034a0 <_ZN5esp329TcpClient29connectRouterEspEventHandler_EbPht+0x2c>)
 800347a:	4610      	mov	r0, r2
 800347c:	f002 f89c 	bl	80055b8 <strstr>
 8003480:	4603      	mov	r3, r0
 8003482:	f104 001c 	add.w	r0, r4, #28
 8003486:	b143      	cbz	r3, 800349a <_ZN5esp329TcpClient29connectRouterEspEventHandler_EbPht+0x26>
 8003488:	2301      	movs	r3, #1
 800348a:	f10d 0107 	add.w	r1, sp, #7
 800348e:	f88d 3007 	strb.w	r3, [sp, #7]
 8003492:	f7ff fed1 	bl	8003238 <_ZN4core10FixedEventIhE4postERKh.isra.0>
 8003496:	b002      	add	sp, #8
 8003498:	bd10      	pop	{r4, pc}
 800349a:	2302      	movs	r3, #2
 800349c:	e7f5      	b.n	800348a <_ZN5esp329TcpClient29connectRouterEspEventHandler_EbPht+0x16>
 800349e:	bf00      	nop
 80034a0:	08006058 	.word	0x08006058

080034a4 <_ZN5esp329TcpClient29queryDeviceIdEspEventHandler_EbPht>:
 80034a4:	e92d 41f3 	stmdb	sp!, {r0, r1, r4, r5, r6, r7, r8, lr}
 80034a8:	4604      	mov	r4, r0
 80034aa:	4615      	mov	r5, r2
 80034ac:	301c      	adds	r0, #28
 80034ae:	b1e1      	cbz	r1, 80034ea <_ZN5esp329TcpClient29queryDeviceIdEspEventHandler_EbPht+0x46>
 80034b0:	2301      	movs	r3, #1
 80034b2:	f10d 0107 	add.w	r1, sp, #7
 80034b6:	f88d 3007 	strb.w	r3, [sp, #7]
 80034ba:	f7ff febd 	bl	8003238 <_ZN4core10FixedEventIhE4postERKh.isra.0>
 80034be:	f504 66b1 	add.w	r6, r4, #1416	; 0x588
 80034c2:	4f0e      	ldr	r7, [pc, #56]	; (80034fc <_ZN5esp329TcpClient29queryDeviceIdEspEventHandler_EbPht+0x58>)
 80034c4:	3d01      	subs	r5, #1
 80034c6:	f204 5497 	addw	r4, r4, #1431	; 0x597
 80034ca:	46b0      	mov	r8, r6
 80034cc:	f815 3f01 	ldrb.w	r3, [r5, #1]!
 80034d0:	f806 3b01 	strb.w	r3, [r6], #1
 80034d4:	f7fe face 	bl	8001a74 <_ZN7console10Controller8instanceEv>
 80034d8:	4642      	mov	r2, r8
 80034da:	4639      	mov	r1, r7
 80034dc:	f7fd fdd9 	bl	8001092 <_ZN7console10Controller6printfEPKcz>
 80034e0:	42a6      	cmp	r6, r4
 80034e2:	d1f3      	bne.n	80034cc <_ZN5esp329TcpClient29queryDeviceIdEspEventHandler_EbPht+0x28>
 80034e4:	b002      	add	sp, #8
 80034e6:	e8bd 81f0 	ldmia.w	sp!, {r4, r5, r6, r7, r8, pc}
 80034ea:	2302      	movs	r3, #2
 80034ec:	f10d 0107 	add.w	r1, sp, #7
 80034f0:	f88d 3007 	strb.w	r3, [sp, #7]
 80034f4:	f7ff fea0 	bl	8003238 <_ZN4core10FixedEventIhE4postERKh.isra.0>
 80034f8:	e7f4      	b.n	80034e4 <_ZN5esp329TcpClient29queryDeviceIdEspEventHandler_EbPht+0x40>
 80034fa:	bf00      	nop
 80034fc:	08006067 	.word	0x08006067

08003500 <_ZN5esp329TcpClient39connectToServerAsClientEspEventHandler_EbPht>:
 8003500:	f7ff bf73 	b.w	80033ea <_ZN5esp329TcpClient26turnOffATEEspEventHandler_EbPht>

08003504 <_ZN5esp329TcpClient39RequestSendDataToServerEspEventHandler_EbPht>:
 8003504:	f7ff bf71 	b.w	80033ea <_ZN5esp329TcpClient26turnOffATEEspEventHandler_EbPht>

08003508 <_ZN5esp329TcpClient35SendingDataToServerEspEventHandler_EbPht>:
 8003508:	b513      	push	{r0, r1, r4, lr}
 800350a:	4604      	mov	r4, r0
 800350c:	4909      	ldr	r1, [pc, #36]	; (8003534 <_ZN5esp329TcpClient35SendingDataToServerEspEventHandler_EbPht+0x2c>)
 800350e:	4610      	mov	r0, r2
 8003510:	f002 f852 	bl	80055b8 <strstr>
 8003514:	4603      	mov	r3, r0
 8003516:	f104 001c 	add.w	r0, r4, #28
 800351a:	b143      	cbz	r3, 800352e <_ZN5esp329TcpClient35SendingDataToServerEspEventHandler_EbPht+0x26>
 800351c:	2301      	movs	r3, #1
 800351e:	f10d 0107 	add.w	r1, sp, #7
 8003522:	f88d 3007 	strb.w	r3, [sp, #7]
 8003526:	f7ff fe87 	bl	8003238 <_ZN4core10FixedEventIhE4postERKh.isra.0>
 800352a:	b002      	add	sp, #8
 800352c:	bd10      	pop	{r4, pc}
 800352e:	2302      	movs	r3, #2
 8003530:	e7f5      	b.n	800351e <_ZN5esp329TcpClient35SendingDataToServerEspEventHandler_EbPht+0x16>
 8003532:	bf00      	nop
 8003534:	08006071 	.word	0x08006071

08003538 <_ZN5esp329TcpClient17msgServerHandler_ERKNS_6Driver13messageServerE>:
 8003538:	e92d 4ff0 	stmdb	sp!, {r4, r5, r6, r7, r8, r9, sl, fp, lr}
 800353c:	ed2d 8b02 	vpush	{d8}
 8003540:	2600      	movs	r6, #0
 8003542:	880a      	ldrh	r2, [r1, #0]
 8003544:	b083      	sub	sp, #12
 8003546:	468a      	mov	sl, r1
 8003548:	4635      	mov	r5, r6
 800354a:	4634      	mov	r4, r6
 800354c:	4633      	mov	r3, r6
 800354e:	429a      	cmp	r2, r3
 8003550:	dd0c      	ble.n	800356c <_ZN5esp329TcpClient17msgServerHandler_ERKNS_6Driver13messageServerE+0x34>
 8003552:	f8da 1004 	ldr.w	r1, [sl, #4]
 8003556:	5cc9      	ldrb	r1, [r1, r3]
 8003558:	292c      	cmp	r1, #44	; 0x2c
 800355a:	d102      	bne.n	8003562 <_ZN5esp329TcpClient17msgServerHandler_ERKNS_6Driver13messageServerE+0x2a>
 800355c:	b2dc      	uxtb	r4, r3
 800355e:	3301      	adds	r3, #1
 8003560:	e7f5      	b.n	800354e <_ZN5esp329TcpClient17msgServerHandler_ERKNS_6Driver13messageServerE+0x16>
 8003562:	293a      	cmp	r1, #58	; 0x3a
 8003564:	bf04      	itt	eq
 8003566:	b2dd      	uxtbeq	r5, r3
 8003568:	4613      	moveq	r3, r2
 800356a:	e7f8      	b.n	800355e <_ZN5esp329TcpClient17msgServerHandler_ERKNS_6Driver13messageServerE+0x26>
 800356c:	ed9f 8b46 	vldr	d8, [pc, #280]	; 8003688 <_ZN5esp329TcpClient17msgServerHandler_ERKNS_6Driver13messageServerE+0x150>
 8003570:	3401      	adds	r4, #1
 8003572:	f105 3bff 	add.w	fp, r5, #4294967295
 8003576:	42a5      	cmp	r5, r4
 8003578:	dd2d      	ble.n	80035d6 <_ZN5esp329TcpClient17msgServerHandler_ERKNS_6Driver13messageServerE+0x9e>
 800357a:	f8da 3004 	ldr.w	r3, [sl, #4]
 800357e:	5d18      	ldrb	r0, [r3, r4]
 8003580:	3830      	subs	r0, #48	; 0x30
 8003582:	f7fc ffd7 	bl	8000534 <__aeabi_i2d>
 8003586:	4680      	mov	r8, r0
 8003588:	ebab 0004 	sub.w	r0, fp, r4
 800358c:	4689      	mov	r9, r1
 800358e:	f7fc ffd1 	bl	8000534 <__aeabi_i2d>
 8003592:	eeb0 0a48 	vmov.f32	s0, s16
 8003596:	eef0 0a68 	vmov.f32	s1, s17
 800359a:	ec41 0b11 	vmov	d1, r0, r1
 800359e:	f000 fee9 	bl	8004374 <pow>
 80035a2:	ec53 2b10 	vmov	r2, r3, d0
 80035a6:	4630      	mov	r0, r6
 80035a8:	e9cd 2300 	strd	r2, r3, [sp]
 80035ac:	f7fc ffc2 	bl	8000534 <__aeabi_i2d>
 80035b0:	e9dd 2300 	ldrd	r2, r3, [sp]
 80035b4:	4606      	mov	r6, r0
 80035b6:	460f      	mov	r7, r1
 80035b8:	4640      	mov	r0, r8
 80035ba:	4649      	mov	r1, r9
 80035bc:	f7fd f824 	bl	8000608 <__aeabi_dmul>
 80035c0:	4602      	mov	r2, r0
 80035c2:	460b      	mov	r3, r1
 80035c4:	4630      	mov	r0, r6
 80035c6:	4639      	mov	r1, r7
 80035c8:	f7fc fe68 	bl	800029c <__adddf3>
 80035cc:	f7fd facc 	bl	8000b68 <__aeabi_d2uiz>
 80035d0:	3401      	adds	r4, #1
 80035d2:	b286      	uxth	r6, r0
 80035d4:	e7cf      	b.n	8003576 <_ZN5esp329TcpClient17msgServerHandler_ERKNS_6Driver13messageServerE+0x3e>
 80035d6:	f8df 80e0 	ldr.w	r8, [pc, #224]	; 80036b8 <_ZN5esp329TcpClient17msgServerHandler_ERKNS_6Driver13messageServerE+0x180>
 80035da:	f7fe fa4b 	bl	8001a74 <_ZN7console10Controller8instanceEv>
 80035de:	492c      	ldr	r1, [pc, #176]	; (8003690 <_ZN5esp329TcpClient17msgServerHandler_ERKNS_6Driver13messageServerE+0x158>)
 80035e0:	4632      	mov	r2, r6
 80035e2:	f7fd fd56 	bl	8001092 <_ZN7console10Controller6printfEPKcz>
 80035e6:	f898 7000 	ldrb.w	r7, [r8]
 80035ea:	f3bf 8f5b 	dmb	ish
 80035ee:	f017 0701 	ands.w	r7, r7, #1
 80035f2:	d13a      	bne.n	800366a <_ZN5esp329TcpClient17msgServerHandler_ERKNS_6Driver13messageServerE+0x132>
 80035f4:	4640      	mov	r0, r8
 80035f6:	f000 fe7d 	bl	80042f4 <__cxa_guard_acquire>
 80035fa:	2800      	cmp	r0, #0
 80035fc:	d035      	beq.n	800366a <_ZN5esp329TcpClient17msgServerHandler_ERKNS_6Driver13messageServerE+0x132>
 80035fe:	4c25      	ldr	r4, [pc, #148]	; (8003694 <_ZN5esp329TcpClient17msgServerHandler_ERKNS_6Driver13messageServerE+0x15c>)
 8003600:	4b25      	ldr	r3, [pc, #148]	; (8003698 <_ZN5esp329TcpClient17msgServerHandler_ERKNS_6Driver13messageServerE+0x160>)
 8003602:	4620      	mov	r0, r4
 8003604:	e9c4 3703 	strd	r3, r7, [r4, #12]
 8003608:	4b24      	ldr	r3, [pc, #144]	; (800369c <_ZN5esp329TcpClient17msgServerHandler_ERKNS_6Driver13messageServerE+0x164>)
 800360a:	f840 3b18 	str.w	r3, [r0], #24
 800360e:	e9c4 7701 	strd	r7, r7, [r4, #4]
 8003612:	f7fe fd3f 	bl	8002094 <_ZN4core5EventC1Ev>
 8003616:	4b22      	ldr	r3, [pc, #136]	; (80036a0 <_ZN5esp329TcpClient17msgServerHandler_ERKNS_6Driver13messageServerE+0x168>)
 8003618:	61a3      	str	r3, [r4, #24]
 800361a:	4b22      	ldr	r3, [pc, #136]	; (80036a4 <_ZN5esp329TcpClient17msgServerHandler_ERKNS_6Driver13messageServerE+0x16c>)
 800361c:	6224      	str	r4, [r4, #32]
 800361e:	4620      	mov	r0, r4
 8003620:	e9c4 3709 	strd	r3, r7, [r4, #36]	; 0x24
 8003624:	4b20      	ldr	r3, [pc, #128]	; (80036a8 <_ZN5esp329TcpClient17msgServerHandler_ERKNS_6Driver13messageServerE+0x170>)
 8003626:	f840 3b2c 	str.w	r3, [r0], #44
 800362a:	f7fe fd33 	bl	8002094 <_ZN4core5EventC1Ev>
 800362e:	4b1f      	ldr	r3, [pc, #124]	; (80036ac <_ZN5esp329TcpClient17msgServerHandler_ERKNS_6Driver13messageServerE+0x174>)
 8003630:	62e3      	str	r3, [r4, #44]	; 0x2c
 8003632:	4b1f      	ldr	r3, [pc, #124]	; (80036b0 <_ZN5esp329TcpClient17msgServerHandler_ERKNS_6Driver13messageServerE+0x178>)
 8003634:	6364      	str	r4, [r4, #52]	; 0x34
 8003636:	f44f 6200 	mov.w	r2, #2048	; 0x800
 800363a:	e9c4 370e 	strd	r3, r7, [r4, #56]	; 0x38
 800363e:	f8a4 2840 	strh.w	r2, [r4, #2112]	; 0x840
 8003642:	f104 0340 	add.w	r3, r4, #64	; 0x40
 8003646:	f504 6204 	add.w	r2, r4, #2112	; 0x840
 800364a:	4640      	mov	r0, r8
 800364c:	f8c4 3844 	str.w	r3, [r4, #2116]	; 0x844
 8003650:	f8c4 2848 	str.w	r2, [r4, #2120]	; 0x848
 8003654:	f8c4 384c 	str.w	r3, [r4, #2124]	; 0x84c
 8003658:	f8c4 3850 	str.w	r3, [r4, #2128]	; 0x850
 800365c:	f884 7854 	strb.w	r7, [r4, #2132]	; 0x854
 8003660:	f000 fe54 	bl	800430c <__cxa_guard_release>
 8003664:	4813      	ldr	r0, [pc, #76]	; (80036b4 <_ZN5esp329TcpClient17msgServerHandler_ERKNS_6Driver13messageServerE+0x17c>)
 8003666:	f001 fe40 	bl	80052ea <atexit>
 800366a:	f8da 3004 	ldr.w	r3, [sl, #4]
 800366e:	4809      	ldr	r0, [pc, #36]	; (8003694 <_ZN5esp329TcpClient17msgServerHandler_ERKNS_6Driver13messageServerE+0x15c>)
 8003670:	3501      	adds	r5, #1
 8003672:	442b      	add	r3, r5
 8003674:	b2f2      	uxtb	r2, r6
 8003676:	2101      	movs	r1, #1
 8003678:	b003      	add	sp, #12
 800367a:	ecbd 8b02 	vpop	{d8}
 800367e:	e8bd 4ff0 	ldmia.w	sp!, {r4, r5, r6, r7, r8, r9, sl, fp, lr}
 8003682:	f7fd be8b 	b.w	800139c <_ZN7console6Driver10sendPacketEthPKh>
 8003686:	bf00      	nop
 8003688:	00000000 	.word	0x00000000
 800368c:	40240000 	.word	0x40240000
 8003690:	08006055 	.word	0x08006055
 8003694:	200000a0 	.word	0x200000a0
 8003698:	08000ec5 	.word	0x08000ec5
 800369c:	08005de0 	.word	0x08005de0
 80036a0:	08005dcc 	.word	0x08005dcc
 80036a4:	08000ed9 	.word	0x08000ed9
 80036a8:	08005e10 	.word	0x08005e10
 80036ac:	08005db8 	.word	0x08005db8
 80036b0:	08001447 	.word	0x08001447
 80036b4:	08003237 	.word	0x08003237
 80036b8:	2000009c 	.word	0x2000009c

080036bc <_ZN5esp329TcpClient19send2ServerHandler_ERKNS0_11data2ServerE>:
 80036bc:	b507      	push	{r0, r1, r2, lr}
 80036be:	684b      	ldr	r3, [r1, #4]
 80036c0:	f8c0 359c 	str.w	r3, [r0, #1436]	; 0x59c
 80036c4:	880b      	ldrh	r3, [r1, #0]
 80036c6:	f8a0 35a0 	strh.w	r3, [r0, #1440]	; 0x5a0
 80036ca:	f10d 0107 	add.w	r1, sp, #7
 80036ce:	2306      	movs	r3, #6
 80036d0:	301c      	adds	r0, #28
 80036d2:	f88d 3007 	strb.w	r3, [sp, #7]
 80036d6:	f7ff fdaf 	bl	8003238 <_ZN4core10FixedEventIhE4postERKh.isra.0>
 80036da:	b003      	add	sp, #12
 80036dc:	f85d fb04 	ldr.w	pc, [sp], #4

080036e0 <_ZN5esp329TcpClient18cmdTimeoutHandler_Ev>:
 80036e0:	b507      	push	{r0, r1, r2, lr}
 80036e2:	2302      	movs	r3, #2
 80036e4:	f10d 0107 	add.w	r1, sp, #7
 80036e8:	301c      	adds	r0, #28
 80036ea:	f88d 3007 	strb.w	r3, [sp, #7]
 80036ee:	f7ff fda3 	bl	8003238 <_ZN4core10FixedEventIhE4postERKh.isra.0>
 80036f2:	b003      	add	sp, #12
 80036f4:	f85d fb04 	ldr.w	pc, [sp], #4

080036f8 <_ZN5esp329TcpClient16rebootedHandler_Ev>:
 80036f8:	b507      	push	{r0, r1, r2, lr}
 80036fa:	2303      	movs	r3, #3
 80036fc:	f10d 0107 	add.w	r1, sp, #7
 8003700:	301c      	adds	r0, #28
 8003702:	f88d 3007 	strb.w	r3, [sp, #7]
 8003706:	f7ff fd97 	bl	8003238 <_ZN4core10FixedEventIhE4postERKh.isra.0>
 800370a:	b003      	add	sp, #12
 800370c:	f85d fb04 	ldr.w	pc, [sp], #4

08003710 <LL_AHB1_GRP1_EnableClock>:
 8003710:	4b05      	ldr	r3, [pc, #20]	; (8003728 <LL_AHB1_GRP1_EnableClock+0x18>)
 8003712:	6b1a      	ldr	r2, [r3, #48]	; 0x30
 8003714:	4302      	orrs	r2, r0
 8003716:	631a      	str	r2, [r3, #48]	; 0x30
 8003718:	6b1b      	ldr	r3, [r3, #48]	; 0x30
 800371a:	b082      	sub	sp, #8
 800371c:	4018      	ands	r0, r3
 800371e:	9001      	str	r0, [sp, #4]
 8003720:	9b01      	ldr	r3, [sp, #4]
 8003722:	b002      	add	sp, #8
 8003724:	4770      	bx	lr
 8003726:	bf00      	nop
 8003728:	40023800 	.word	0x40023800

0800372c <MX_GPIO_Init>:
 800372c:	b508      	push	{r3, lr}
 800372e:	2080      	movs	r0, #128	; 0x80
 8003730:	f7ff ffee 	bl	8003710 <LL_AHB1_GRP1_EnableClock>
 8003734:	2004      	movs	r0, #4
 8003736:	f7ff ffeb 	bl	8003710 <LL_AHB1_GRP1_EnableClock>
 800373a:	e8bd 4008 	ldmia.w	sp!, {r3, lr}
 800373e:	2001      	movs	r0, #1
 8003740:	f7ff bfe6 	b.w	8003710 <LL_AHB1_GRP1_EnableClock>

08003744 <SystemClock_Config>:
 8003744:	b510      	push	{r4, lr}
 8003746:	b094      	sub	sp, #80	; 0x50
 8003748:	2214      	movs	r2, #20
 800374a:	2100      	movs	r1, #0
 800374c:	a809      	add	r0, sp, #36	; 0x24
 800374e:	f001 fe0d 	bl	800536c <memset>
 8003752:	2214      	movs	r2, #20
 8003754:	2100      	movs	r1, #0
 8003756:	a803      	add	r0, sp, #12
 8003758:	f001 fe08 	bl	800536c <memset>
 800375c:	2300      	movs	r3, #0
 800375e:	4a1e      	ldr	r2, [pc, #120]	; (80037d8 <SystemClock_Config+0x94>)
 8003760:	9301      	str	r3, [sp, #4]
 8003762:	6c11      	ldr	r1, [r2, #64]	; 0x40
 8003764:	f041 5180 	orr.w	r1, r1, #268435456	; 0x10000000
 8003768:	6411      	str	r1, [r2, #64]	; 0x40
 800376a:	6c12      	ldr	r2, [r2, #64]	; 0x40
 800376c:	f002 5280 	and.w	r2, r2, #268435456	; 0x10000000
 8003770:	9201      	str	r2, [sp, #4]
 8003772:	9a01      	ldr	r2, [sp, #4]
 8003774:	4a19      	ldr	r2, [pc, #100]	; (80037dc <SystemClock_Config+0x98>)
 8003776:	9302      	str	r3, [sp, #8]
 8003778:	6811      	ldr	r1, [r2, #0]
 800377a:	f441 4140 	orr.w	r1, r1, #49152	; 0xc000
 800377e:	6011      	str	r1, [r2, #0]
 8003780:	6812      	ldr	r2, [r2, #0]
 8003782:	2402      	movs	r4, #2
 8003784:	f402 4240 	and.w	r2, r2, #49152	; 0xc000
 8003788:	2008      	movs	r0, #8
 800378a:	e9cd 430e 	strd	r4, r3, [sp, #56]	; 0x38
 800378e:	9202      	str	r2, [sp, #8]
 8003790:	2364      	movs	r3, #100	; 0x64
 8003792:	e9cd 0310 	strd	r0, r3, [sp, #64]	; 0x40
 8003796:	9a02      	ldr	r2, [sp, #8]
 8003798:	9408      	str	r4, [sp, #32]
 800379a:	2101      	movs	r1, #1
 800379c:	2210      	movs	r2, #16
 800379e:	2304      	movs	r3, #4
 80037a0:	a808      	add	r0, sp, #32
 80037a2:	e9cd 120b 	strd	r1, r2, [sp, #44]	; 0x2c
 80037a6:	9412      	str	r4, [sp, #72]	; 0x48
 80037a8:	9313      	str	r3, [sp, #76]	; 0x4c
 80037aa:	f000 f9af 	bl	8003b0c <HAL_RCC_OscConfig>
 80037ae:	b108      	cbz	r0, 80037b4 <SystemClock_Config+0x70>
 80037b0:	b672      	cpsid	i
 80037b2:	e7fe      	b.n	80037b2 <SystemClock_Config+0x6e>
 80037b4:	230f      	movs	r3, #15
 80037b6:	e9cd 3403 	strd	r3, r4, [sp, #12]
 80037ba:	f44f 5380 	mov.w	r3, #4096	; 0x1000
 80037be:	e9cd 3006 	strd	r3, r0, [sp, #24]
 80037c2:	9005      	str	r0, [sp, #20]
 80037c4:	2103      	movs	r1, #3
 80037c6:	a803      	add	r0, sp, #12
 80037c8:	f000 fb7a 	bl	8003ec0 <HAL_RCC_ClockConfig>
 80037cc:	b108      	cbz	r0, 80037d2 <SystemClock_Config+0x8e>
 80037ce:	b672      	cpsid	i
 80037d0:	e7fe      	b.n	80037d0 <SystemClock_Config+0x8c>
 80037d2:	b014      	add	sp, #80	; 0x50
 80037d4:	bd10      	pop	{r4, pc}
 80037d6:	bf00      	nop
 80037d8:	40023800 	.word	0x40023800
 80037dc:	40007000 	.word	0x40007000

080037e0 <_getpid>:
 80037e0:	2001      	movs	r0, #1
 80037e2:	4770      	bx	lr

080037e4 <_kill>:
 80037e4:	b508      	push	{r3, lr}
 80037e6:	f001 fd87 	bl	80052f8 <__errno>
 80037ea:	2316      	movs	r3, #22
 80037ec:	6003      	str	r3, [r0, #0]
 80037ee:	f04f 30ff 	mov.w	r0, #4294967295
 80037f2:	bd08      	pop	{r3, pc}

080037f4 <_exit>:
 80037f4:	b508      	push	{r3, lr}
 80037f6:	f001 fd7f 	bl	80052f8 <__errno>
 80037fa:	2316      	movs	r3, #22
 80037fc:	6003      	str	r3, [r0, #0]
 80037fe:	e7fe      	b.n	80037fe <_exit+0xa>

08003800 <_sbrk>:
 8003800:	4b0b      	ldr	r3, [pc, #44]	; (8003830 <_sbrk+0x30>)
 8003802:	6819      	ldr	r1, [r3, #0]
 8003804:	b510      	push	{r4, lr}
 8003806:	4602      	mov	r2, r0
 8003808:	b909      	cbnz	r1, 800380e <_sbrk+0xe>
 800380a:	490a      	ldr	r1, [pc, #40]	; (8003834 <_sbrk+0x34>)
 800380c:	6019      	str	r1, [r3, #0]
 800380e:	6818      	ldr	r0, [r3, #0]
 8003810:	4909      	ldr	r1, [pc, #36]	; (8003838 <_sbrk+0x38>)
 8003812:	4c0a      	ldr	r4, [pc, #40]	; (800383c <_sbrk+0x3c>)
 8003814:	4402      	add	r2, r0
 8003816:	1b09      	subs	r1, r1, r4
 8003818:	428a      	cmp	r2, r1
 800381a:	d906      	bls.n	800382a <_sbrk+0x2a>
 800381c:	f001 fd6c 	bl	80052f8 <__errno>
 8003820:	230c      	movs	r3, #12
 8003822:	6003      	str	r3, [r0, #0]
 8003824:	f04f 30ff 	mov.w	r0, #4294967295
 8003828:	bd10      	pop	{r4, pc}
 800382a:	601a      	str	r2, [r3, #0]
 800382c:	e7fc      	b.n	8003828 <_sbrk+0x28>
 800382e:	bf00      	nop
 8003830:	20002bb8 	.word	0x20002bb8
 8003834:	20002c70 	.word	0x20002c70
 8003838:	20020000 	.word	0x20020000
 800383c:	00000400 	.word	0x00000400

08003840 <SystemInit>:
 8003840:	4a03      	ldr	r2, [pc, #12]	; (8003850 <SystemInit+0x10>)
 8003842:	f8d2 3088 	ldr.w	r3, [r2, #136]	; 0x88
 8003846:	f443 0370 	orr.w	r3, r3, #15728640	; 0xf00000
 800384a:	f8c2 3088 	str.w	r3, [r2, #136]	; 0x88
 800384e:	4770      	bx	lr
 8003850:	e000ed00 	.word	0xe000ed00

08003854 <NVIC_EncodePriority.constprop.0>:
 8003854:	2000      	movs	r0, #0
 8003856:	4770      	bx	lr

08003858 <MX_USART1_UART_Init>:
 8003858:	b510      	push	{r4, lr}
 800385a:	b090      	sub	sp, #64	; 0x40
 800385c:	221c      	movs	r2, #28
 800385e:	2100      	movs	r1, #0
 8003860:	a809      	add	r0, sp, #36	; 0x24
 8003862:	f001 fd83 	bl	800536c <memset>
 8003866:	4b28      	ldr	r3, [pc, #160]	; (8003908 <MX_USART1_UART_Init+0xb0>)
 8003868:	4828      	ldr	r0, [pc, #160]	; (800390c <MX_USART1_UART_Init+0xb4>)
 800386a:	6c5a      	ldr	r2, [r3, #68]	; 0x44
 800386c:	f042 0210 	orr.w	r2, r2, #16
 8003870:	645a      	str	r2, [r3, #68]	; 0x44
 8003872:	6c5a      	ldr	r2, [r3, #68]	; 0x44
 8003874:	f002 0210 	and.w	r2, r2, #16
 8003878:	9202      	str	r2, [sp, #8]
 800387a:	9a02      	ldr	r2, [sp, #8]
 800387c:	6b1a      	ldr	r2, [r3, #48]	; 0x30
 800387e:	f042 0201 	orr.w	r2, r2, #1
 8003882:	631a      	str	r2, [r3, #48]	; 0x30
 8003884:	6b1b      	ldr	r3, [r3, #48]	; 0x30
 8003886:	f003 0301 	and.w	r3, r3, #1
 800388a:	9301      	str	r3, [sp, #4]
 800388c:	f44f 62c0 	mov.w	r2, #1536	; 0x600
 8003890:	9b01      	ldr	r3, [sp, #4]
 8003892:	2302      	movs	r3, #2
 8003894:	2400      	movs	r4, #0
 8003896:	e9cd 2303 	strd	r2, r3, [sp, #12]
 800389a:	2303      	movs	r3, #3
 800389c:	e9cd 3405 	strd	r3, r4, [sp, #20]
 80038a0:	2101      	movs	r1, #1
 80038a2:	2307      	movs	r3, #7
 80038a4:	e9cd 1307 	strd	r1, r3, [sp, #28]
 80038a8:	a903      	add	r1, sp, #12
 80038aa:	f000 fba5 	bl	8003ff8 <LL_GPIO_Init>
 80038ae:	4b18      	ldr	r3, [pc, #96]	; (8003910 <MX_USART1_UART_Init+0xb8>)
 80038b0:	68d8      	ldr	r0, [r3, #12]
 80038b2:	f3c0 2002 	ubfx	r0, r0, #8, #3
 80038b6:	f7ff ffcd 	bl	8003854 <NVIC_EncodePriority.constprop.0>
 80038ba:	4b16      	ldr	r3, [pc, #88]	; (8003914 <MX_USART1_UART_Init+0xbc>)
 80038bc:	0100      	lsls	r0, r0, #4
 80038be:	2220      	movs	r2, #32
 80038c0:	b2c0      	uxtb	r0, r0
 80038c2:	f883 0325 	strb.w	r0, [r3, #805]	; 0x325
 80038c6:	605a      	str	r2, [r3, #4]
 80038c8:	f44f 33e1 	mov.w	r3, #115200	; 0x1c200
 80038cc:	e9cd 3409 	strd	r3, r4, [sp, #36]	; 0x24
 80038d0:	230c      	movs	r3, #12
 80038d2:	e9cd 340d 	strd	r3, r4, [sp, #52]	; 0x34
 80038d6:	e9cd 440b 	strd	r4, r4, [sp, #44]	; 0x2c
 80038da:	940f      	str	r4, [sp, #60]	; 0x3c
 80038dc:	f104 4480 	add.w	r4, r4, #1073741824	; 0x40000000
 80038e0:	f504 3488 	add.w	r4, r4, #69632	; 0x11000
 80038e4:	a909      	add	r1, sp, #36	; 0x24
 80038e6:	4620      	mov	r0, r4
 80038e8:	f000 fc90 	bl	800420c <LL_USART_Init>
 80038ec:	6923      	ldr	r3, [r4, #16]
 80038ee:	f423 4390 	bic.w	r3, r3, #18432	; 0x4800
 80038f2:	6123      	str	r3, [r4, #16]
 80038f4:	6963      	ldr	r3, [r4, #20]
 80038f6:	f023 032a 	bic.w	r3, r3, #42	; 0x2a
 80038fa:	6163      	str	r3, [r4, #20]
 80038fc:	68e3      	ldr	r3, [r4, #12]
 80038fe:	f443 5300 	orr.w	r3, r3, #8192	; 0x2000
 8003902:	60e3      	str	r3, [r4, #12]
 8003904:	b010      	add	sp, #64	; 0x40
 8003906:	bd10      	pop	{r4, pc}
 8003908:	40023800 	.word	0x40023800
 800390c:	40020000 	.word	0x40020000
 8003910:	e000ed00 	.word	0xe000ed00
 8003914:	e000e100 	.word	0xe000e100

08003918 <MX_USART6_UART_Init>:
 8003918:	b510      	push	{r4, lr}
 800391a:	b090      	sub	sp, #64	; 0x40
 800391c:	221c      	movs	r2, #28
 800391e:	2100      	movs	r1, #0
 8003920:	a809      	add	r0, sp, #36	; 0x24
 8003922:	f001 fd23 	bl	800536c <memset>
 8003926:	4b26      	ldr	r3, [pc, #152]	; (80039c0 <MX_USART6_UART_Init+0xa8>)
 8003928:	4826      	ldr	r0, [pc, #152]	; (80039c4 <MX_USART6_UART_Init+0xac>)
 800392a:	6c5a      	ldr	r2, [r3, #68]	; 0x44
 800392c:	f042 0220 	orr.w	r2, r2, #32
 8003930:	645a      	str	r2, [r3, #68]	; 0x44
 8003932:	6c5a      	ldr	r2, [r3, #68]	; 0x44
 8003934:	f002 0220 	and.w	r2, r2, #32
 8003938:	9202      	str	r2, [sp, #8]
 800393a:	9a02      	ldr	r2, [sp, #8]
 800393c:	6b1a      	ldr	r2, [r3, #48]	; 0x30
 800393e:	f042 0204 	orr.w	r2, r2, #4
 8003942:	631a      	str	r2, [r3, #48]	; 0x30
 8003944:	6b1b      	ldr	r3, [r3, #48]	; 0x30
 8003946:	f003 0304 	and.w	r3, r3, #4
 800394a:	9301      	str	r3, [sp, #4]
 800394c:	22c0      	movs	r2, #192	; 0xc0
 800394e:	9b01      	ldr	r3, [sp, #4]
 8003950:	2302      	movs	r3, #2
 8003952:	2400      	movs	r4, #0
 8003954:	e9cd 2303 	strd	r2, r3, [sp, #12]
 8003958:	2303      	movs	r3, #3
 800395a:	e9cd 3405 	strd	r3, r4, [sp, #20]
 800395e:	2101      	movs	r1, #1
 8003960:	2308      	movs	r3, #8
 8003962:	e9cd 1307 	strd	r1, r3, [sp, #28]
 8003966:	a903      	add	r1, sp, #12
 8003968:	f000 fb46 	bl	8003ff8 <LL_GPIO_Init>
 800396c:	4b16      	ldr	r3, [pc, #88]	; (80039c8 <MX_USART6_UART_Init+0xb0>)
 800396e:	68d8      	ldr	r0, [r3, #12]
 8003970:	f3c0 2002 	ubfx	r0, r0, #8, #3
 8003974:	f7ff ff6e 	bl	8003854 <NVIC_EncodePriority.constprop.0>
 8003978:	4b14      	ldr	r3, [pc, #80]	; (80039cc <MX_USART6_UART_Init+0xb4>)
 800397a:	0100      	lsls	r0, r0, #4
 800397c:	2280      	movs	r2, #128	; 0x80
 800397e:	b2c0      	uxtb	r0, r0
 8003980:	f883 0347 	strb.w	r0, [r3, #839]	; 0x347
 8003984:	609a      	str	r2, [r3, #8]
 8003986:	f44f 33e1 	mov.w	r3, #115200	; 0x1c200
 800398a:	e9cd 3409 	strd	r3, r4, [sp, #36]	; 0x24
 800398e:	230c      	movs	r3, #12
 8003990:	e9cd 340d 	strd	r3, r4, [sp, #52]	; 0x34
 8003994:	e9cd 440b 	strd	r4, r4, [sp, #44]	; 0x2c
 8003998:	940f      	str	r4, [sp, #60]	; 0x3c
 800399a:	4c0d      	ldr	r4, [pc, #52]	; (80039d0 <MX_USART6_UART_Init+0xb8>)
 800399c:	a909      	add	r1, sp, #36	; 0x24
 800399e:	4620      	mov	r0, r4
 80039a0:	f000 fc34 	bl	800420c <LL_USART_Init>
 80039a4:	6923      	ldr	r3, [r4, #16]
 80039a6:	f423 4390 	bic.w	r3, r3, #18432	; 0x4800
 80039aa:	6123      	str	r3, [r4, #16]
 80039ac:	6963      	ldr	r3, [r4, #20]
 80039ae:	f023 032a 	bic.w	r3, r3, #42	; 0x2a
 80039b2:	6163      	str	r3, [r4, #20]
 80039b4:	68e3      	ldr	r3, [r4, #12]
 80039b6:	f443 5300 	orr.w	r3, r3, #8192	; 0x2000
 80039ba:	60e3      	str	r3, [r4, #12]
 80039bc:	b010      	add	sp, #64	; 0x40
 80039be:	bd10      	pop	{r4, pc}
 80039c0:	40023800 	.word	0x40023800
 80039c4:	40020800 	.word	0x40020800
 80039c8:	e000ed00 	.word	0xe000ed00
 80039cc:	e000e100 	.word	0xe000e100
 80039d0:	40011400 	.word	0x40011400

080039d4 <Reset_Handler>:
 80039d4:	f8df d034 	ldr.w	sp, [pc, #52]	; 8003a0c <LoopFillZerobss+0x12>
 80039d8:	480d      	ldr	r0, [pc, #52]	; (8003a10 <LoopFillZerobss+0x16>)
 80039da:	490e      	ldr	r1, [pc, #56]	; (8003a14 <LoopFillZerobss+0x1a>)
 80039dc:	4a0e      	ldr	r2, [pc, #56]	; (8003a18 <LoopFillZerobss+0x1e>)
 80039de:	2300      	movs	r3, #0
 80039e0:	e002      	b.n	80039e8 <LoopCopyDataInit>

080039e2 <CopyDataInit>:
 80039e2:	58d4      	ldr	r4, [r2, r3]
 80039e4:	50c4      	str	r4, [r0, r3]
 80039e6:	3304      	adds	r3, #4

080039e8 <LoopCopyDataInit>:
 80039e8:	18c4      	adds	r4, r0, r3
 80039ea:	428c      	cmp	r4, r1
 80039ec:	d3f9      	bcc.n	80039e2 <CopyDataInit>
 80039ee:	4a0b      	ldr	r2, [pc, #44]	; (8003a1c <LoopFillZerobss+0x22>)
 80039f0:	4c0b      	ldr	r4, [pc, #44]	; (8003a20 <LoopFillZerobss+0x26>)
 80039f2:	2300      	movs	r3, #0
 80039f4:	e001      	b.n	80039fa <LoopFillZerobss>

080039f6 <FillZerobss>:
 80039f6:	6013      	str	r3, [r2, #0]
 80039f8:	3204      	adds	r2, #4

080039fa <LoopFillZerobss>:
 80039fa:	42a2      	cmp	r2, r4
 80039fc:	d3fb      	bcc.n	80039f6 <FillZerobss>
 80039fe:	f7ff ff1f 	bl	8003840 <SystemInit>
 8003a02:	f001 fc7f 	bl	8005304 <__libc_init_array>
 8003a06:	f7fe fa34 	bl	8001e72 <main>
 8003a0a:	4770      	bx	lr
 8003a0c:	20020000 	.word	0x20020000
 8003a10:	20000000 	.word	0x20000000
 8003a14:	2000007c 	.word	0x2000007c
 8003a18:	08006134 	.word	0x08006134
 8003a1c:	20000080 	.word	0x20000080
 8003a20:	20002c6c 	.word	0x20002c6c

08003a24 <ADC_IRQHandler>:
 8003a24:	e7fe      	b.n	8003a24 <ADC_IRQHandler>
	...

08003a28 <HAL_InitTick>:
 8003a28:	b538      	push	{r3, r4, r5, lr}
 8003a2a:	4a0e      	ldr	r2, [pc, #56]	; (8003a64 <HAL_InitTick+0x3c>)
 8003a2c:	4b0e      	ldr	r3, [pc, #56]	; (8003a68 <HAL_InitTick+0x40>)
 8003a2e:	4605      	mov	r5, r0
 8003a30:	7818      	ldrb	r0, [r3, #0]
 8003a32:	f44f 737a 	mov.w	r3, #1000	; 0x3e8
 8003a36:	fbb3 f3f0 	udiv	r3, r3, r0
 8003a3a:	6810      	ldr	r0, [r2, #0]
 8003a3c:	fbb0 f0f3 	udiv	r0, r0, r3
 8003a40:	f000 f84e 	bl	8003ae0 <HAL_SYSTICK_Config>
 8003a44:	4604      	mov	r4, r0
 8003a46:	b958      	cbnz	r0, 8003a60 <HAL_InitTick+0x38>
 8003a48:	2d0f      	cmp	r5, #15
 8003a4a:	d809      	bhi.n	8003a60 <HAL_InitTick+0x38>
 8003a4c:	4602      	mov	r2, r0
 8003a4e:	4629      	mov	r1, r5
 8003a50:	f04f 30ff 	mov.w	r0, #4294967295
 8003a54:	f000 f812 	bl	8003a7c <HAL_NVIC_SetPriority>
 8003a58:	4b04      	ldr	r3, [pc, #16]	; (8003a6c <HAL_InitTick+0x44>)
 8003a5a:	4620      	mov	r0, r4
 8003a5c:	601d      	str	r5, [r3, #0]
 8003a5e:	bd38      	pop	{r3, r4, r5, pc}
 8003a60:	2001      	movs	r0, #1
 8003a62:	e7fc      	b.n	8003a5e <HAL_InitTick+0x36>
 8003a64:	20000000 	.word	0x20000000
 8003a68:	20000004 	.word	0x20000004
 8003a6c:	20000008 	.word	0x20000008

08003a70 <HAL_GetTick>:
 8003a70:	4b01      	ldr	r3, [pc, #4]	; (8003a78 <HAL_GetTick+0x8>)
 8003a72:	6818      	ldr	r0, [r3, #0]
 8003a74:	4770      	bx	lr
 8003a76:	bf00      	nop
 8003a78:	20002c58 	.word	0x20002c58

08003a7c <HAL_NVIC_SetPriority>:
 8003a7c:	4b16      	ldr	r3, [pc, #88]	; (8003ad8 <HAL_NVIC_SetPriority+0x5c>)
 8003a7e:	b530      	push	{r4, r5, lr}
 8003a80:	68dc      	ldr	r4, [r3, #12]
 8003a82:	f3c4 2402 	ubfx	r4, r4, #8, #3
 8003a86:	f1c4 0507 	rsb	r5, r4, #7
 8003a8a:	1d23      	adds	r3, r4, #4
 8003a8c:	2d04      	cmp	r5, #4
 8003a8e:	bf28      	it	cs
 8003a90:	2504      	movcs	r5, #4
 8003a92:	2b06      	cmp	r3, #6
 8003a94:	f04f 33ff 	mov.w	r3, #4294967295
 8003a98:	bf8c      	ite	hi
 8003a9a:	3c03      	subhi	r4, #3
 8003a9c:	2400      	movls	r4, #0
 8003a9e:	fa03 f505 	lsl.w	r5, r3, r5
 8003aa2:	ea21 0105 	bic.w	r1, r1, r5
 8003aa6:	40a3      	lsls	r3, r4
 8003aa8:	ea22 0203 	bic.w	r2, r2, r3
 8003aac:	40a1      	lsls	r1, r4
 8003aae:	2800      	cmp	r0, #0
 8003ab0:	ea41 0302 	orr.w	r3, r1, r2
 8003ab4:	bfac      	ite	ge
 8003ab6:	f100 4060 	addge.w	r0, r0, #3758096384	; 0xe0000000
 8003aba:	4a08      	ldrlt	r2, [pc, #32]	; (8003adc <HAL_NVIC_SetPriority+0x60>)
 8003abc:	ea4f 1303 	mov.w	r3, r3, lsl #4
 8003ac0:	bfb8      	it	lt
 8003ac2:	f000 000f 	andlt.w	r0, r0, #15
 8003ac6:	b2db      	uxtb	r3, r3
 8003ac8:	bfaa      	itet	ge
 8003aca:	f500 4061 	addge.w	r0, r0, #57600	; 0xe100
 8003ace:	5413      	strblt	r3, [r2, r0]
 8003ad0:	f880 3300 	strbge.w	r3, [r0, #768]	; 0x300
 8003ad4:	bd30      	pop	{r4, r5, pc}
 8003ad6:	bf00      	nop
 8003ad8:	e000ed00 	.word	0xe000ed00
 8003adc:	e000ed14 	.word	0xe000ed14

08003ae0 <HAL_SYSTICK_Config>:
 8003ae0:	3801      	subs	r0, #1
 8003ae2:	f1b0 7f80 	cmp.w	r0, #16777216	; 0x1000000
 8003ae6:	d20a      	bcs.n	8003afe <HAL_SYSTICK_Config+0x1e>
 8003ae8:	4b06      	ldr	r3, [pc, #24]	; (8003b04 <HAL_SYSTICK_Config+0x24>)
 8003aea:	4a07      	ldr	r2, [pc, #28]	; (8003b08 <HAL_SYSTICK_Config+0x28>)
 8003aec:	6058      	str	r0, [r3, #4]
 8003aee:	21f0      	movs	r1, #240	; 0xf0
 8003af0:	f882 1023 	strb.w	r1, [r2, #35]	; 0x23
 8003af4:	2000      	movs	r0, #0
 8003af6:	2207      	movs	r2, #7
 8003af8:	6098      	str	r0, [r3, #8]
 8003afa:	601a      	str	r2, [r3, #0]
 8003afc:	4770      	bx	lr
 8003afe:	2001      	movs	r0, #1
 8003b00:	4770      	bx	lr
 8003b02:	bf00      	nop
 8003b04:	e000e010 	.word	0xe000e010
 8003b08:	e000ed00 	.word	0xe000ed00

08003b0c <HAL_RCC_OscConfig>:
 8003b0c:	e92d 41f3 	stmdb	sp!, {r0, r1, r4, r5, r6, r7, r8, lr}
 8003b10:	4604      	mov	r4, r0
 8003b12:	b340      	cbz	r0, 8003b66 <HAL_RCC_OscConfig+0x5a>
 8003b14:	6803      	ldr	r3, [r0, #0]
 8003b16:	07dd      	lsls	r5, r3, #31
 8003b18:	d410      	bmi.n	8003b3c <HAL_RCC_OscConfig+0x30>
 8003b1a:	6823      	ldr	r3, [r4, #0]
 8003b1c:	0798      	lsls	r0, r3, #30
 8003b1e:	d45e      	bmi.n	8003bde <HAL_RCC_OscConfig+0xd2>
 8003b20:	6823      	ldr	r3, [r4, #0]
 8003b22:	071a      	lsls	r2, r3, #28
 8003b24:	f100 80a0 	bmi.w	8003c68 <HAL_RCC_OscConfig+0x15c>
 8003b28:	6823      	ldr	r3, [r4, #0]
 8003b2a:	075b      	lsls	r3, r3, #29
 8003b2c:	f100 80be 	bmi.w	8003cac <HAL_RCC_OscConfig+0x1a0>
 8003b30:	69a0      	ldr	r0, [r4, #24]
 8003b32:	2800      	cmp	r0, #0
 8003b34:	f040 811f 	bne.w	8003d76 <HAL_RCC_OscConfig+0x26a>
 8003b38:	2000      	movs	r0, #0
 8003b3a:	e02b      	b.n	8003b94 <HAL_RCC_OscConfig+0x88>
 8003b3c:	4ba6      	ldr	r3, [pc, #664]	; (8003dd8 <HAL_RCC_OscConfig+0x2cc>)
 8003b3e:	689a      	ldr	r2, [r3, #8]
 8003b40:	f002 020c 	and.w	r2, r2, #12
 8003b44:	2a04      	cmp	r2, #4
 8003b46:	d007      	beq.n	8003b58 <HAL_RCC_OscConfig+0x4c>
 8003b48:	689a      	ldr	r2, [r3, #8]
 8003b4a:	f002 020c 	and.w	r2, r2, #12
 8003b4e:	2a08      	cmp	r2, #8
 8003b50:	d10b      	bne.n	8003b6a <HAL_RCC_OscConfig+0x5e>
 8003b52:	685a      	ldr	r2, [r3, #4]
 8003b54:	0251      	lsls	r1, r2, #9
 8003b56:	d508      	bpl.n	8003b6a <HAL_RCC_OscConfig+0x5e>
 8003b58:	4b9f      	ldr	r3, [pc, #636]	; (8003dd8 <HAL_RCC_OscConfig+0x2cc>)
 8003b5a:	681b      	ldr	r3, [r3, #0]
 8003b5c:	039a      	lsls	r2, r3, #14
 8003b5e:	d5dc      	bpl.n	8003b1a <HAL_RCC_OscConfig+0xe>
 8003b60:	6863      	ldr	r3, [r4, #4]
 8003b62:	2b00      	cmp	r3, #0
 8003b64:	d1d9      	bne.n	8003b1a <HAL_RCC_OscConfig+0xe>
 8003b66:	2001      	movs	r0, #1
 8003b68:	e014      	b.n	8003b94 <HAL_RCC_OscConfig+0x88>
 8003b6a:	6862      	ldr	r2, [r4, #4]
 8003b6c:	f5b2 3f80 	cmp.w	r2, #65536	; 0x10000
 8003b70:	d113      	bne.n	8003b9a <HAL_RCC_OscConfig+0x8e>
 8003b72:	681a      	ldr	r2, [r3, #0]
 8003b74:	f442 3280 	orr.w	r2, r2, #65536	; 0x10000
 8003b78:	601a      	str	r2, [r3, #0]
 8003b7a:	f7ff ff79 	bl	8003a70 <HAL_GetTick>
 8003b7e:	4e96      	ldr	r6, [pc, #600]	; (8003dd8 <HAL_RCC_OscConfig+0x2cc>)
 8003b80:	4605      	mov	r5, r0
 8003b82:	6833      	ldr	r3, [r6, #0]
 8003b84:	039b      	lsls	r3, r3, #14
 8003b86:	d4c8      	bmi.n	8003b1a <HAL_RCC_OscConfig+0xe>
 8003b88:	f7ff ff72 	bl	8003a70 <HAL_GetTick>
 8003b8c:	1b40      	subs	r0, r0, r5
 8003b8e:	2864      	cmp	r0, #100	; 0x64
 8003b90:	d9f7      	bls.n	8003b82 <HAL_RCC_OscConfig+0x76>
 8003b92:	2003      	movs	r0, #3
 8003b94:	b002      	add	sp, #8
 8003b96:	e8bd 81f0 	ldmia.w	sp!, {r4, r5, r6, r7, r8, pc}
 8003b9a:	4d8f      	ldr	r5, [pc, #572]	; (8003dd8 <HAL_RCC_OscConfig+0x2cc>)
 8003b9c:	f5b2 2fa0 	cmp.w	r2, #327680	; 0x50000
 8003ba0:	682b      	ldr	r3, [r5, #0]
 8003ba2:	d107      	bne.n	8003bb4 <HAL_RCC_OscConfig+0xa8>
 8003ba4:	f443 2380 	orr.w	r3, r3, #262144	; 0x40000
 8003ba8:	602b      	str	r3, [r5, #0]
 8003baa:	682b      	ldr	r3, [r5, #0]
 8003bac:	f443 3380 	orr.w	r3, r3, #65536	; 0x10000
 8003bb0:	602b      	str	r3, [r5, #0]
 8003bb2:	e7e2      	b.n	8003b7a <HAL_RCC_OscConfig+0x6e>
 8003bb4:	f423 3380 	bic.w	r3, r3, #65536	; 0x10000
 8003bb8:	602b      	str	r3, [r5, #0]
 8003bba:	682b      	ldr	r3, [r5, #0]
 8003bbc:	f423 2380 	bic.w	r3, r3, #262144	; 0x40000
 8003bc0:	602b      	str	r3, [r5, #0]
 8003bc2:	2a00      	cmp	r2, #0
 8003bc4:	d1d9      	bne.n	8003b7a <HAL_RCC_OscConfig+0x6e>
 8003bc6:	f7ff ff53 	bl	8003a70 <HAL_GetTick>
 8003bca:	4606      	mov	r6, r0
 8003bcc:	682b      	ldr	r3, [r5, #0]
 8003bce:	039f      	lsls	r7, r3, #14
 8003bd0:	d5a3      	bpl.n	8003b1a <HAL_RCC_OscConfig+0xe>
 8003bd2:	f7ff ff4d 	bl	8003a70 <HAL_GetTick>
 8003bd6:	1b80      	subs	r0, r0, r6
 8003bd8:	2864      	cmp	r0, #100	; 0x64
 8003bda:	d9f7      	bls.n	8003bcc <HAL_RCC_OscConfig+0xc0>
 8003bdc:	e7d9      	b.n	8003b92 <HAL_RCC_OscConfig+0x86>
 8003bde:	4b7e      	ldr	r3, [pc, #504]	; (8003dd8 <HAL_RCC_OscConfig+0x2cc>)
 8003be0:	689a      	ldr	r2, [r3, #8]
 8003be2:	f012 0f0c 	tst.w	r2, #12
 8003be6:	d007      	beq.n	8003bf8 <HAL_RCC_OscConfig+0xec>
 8003be8:	689a      	ldr	r2, [r3, #8]
 8003bea:	f002 020c 	and.w	r2, r2, #12
 8003bee:	2a08      	cmp	r2, #8
 8003bf0:	d111      	bne.n	8003c16 <HAL_RCC_OscConfig+0x10a>
 8003bf2:	685b      	ldr	r3, [r3, #4]
 8003bf4:	025e      	lsls	r6, r3, #9
 8003bf6:	d40e      	bmi.n	8003c16 <HAL_RCC_OscConfig+0x10a>
 8003bf8:	4b77      	ldr	r3, [pc, #476]	; (8003dd8 <HAL_RCC_OscConfig+0x2cc>)
 8003bfa:	681a      	ldr	r2, [r3, #0]
 8003bfc:	0795      	lsls	r5, r2, #30
 8003bfe:	d502      	bpl.n	8003c06 <HAL_RCC_OscConfig+0xfa>
 8003c00:	68e2      	ldr	r2, [r4, #12]
 8003c02:	2a01      	cmp	r2, #1
 8003c04:	d1af      	bne.n	8003b66 <HAL_RCC_OscConfig+0x5a>
 8003c06:	681a      	ldr	r2, [r3, #0]
 8003c08:	6921      	ldr	r1, [r4, #16]
 8003c0a:	f022 02f8 	bic.w	r2, r2, #248	; 0xf8
 8003c0e:	ea42 02c1 	orr.w	r2, r2, r1, lsl #3
 8003c12:	601a      	str	r2, [r3, #0]
 8003c14:	e784      	b.n	8003b20 <HAL_RCC_OscConfig+0x14>
 8003c16:	68e2      	ldr	r2, [r4, #12]
 8003c18:	4b70      	ldr	r3, [pc, #448]	; (8003ddc <HAL_RCC_OscConfig+0x2d0>)
 8003c1a:	b1b2      	cbz	r2, 8003c4a <HAL_RCC_OscConfig+0x13e>
 8003c1c:	2201      	movs	r2, #1
 8003c1e:	601a      	str	r2, [r3, #0]
 8003c20:	f7ff ff26 	bl	8003a70 <HAL_GetTick>
 8003c24:	4d6c      	ldr	r5, [pc, #432]	; (8003dd8 <HAL_RCC_OscConfig+0x2cc>)
 8003c26:	4606      	mov	r6, r0
 8003c28:	682b      	ldr	r3, [r5, #0]
 8003c2a:	0798      	lsls	r0, r3, #30
 8003c2c:	d507      	bpl.n	8003c3e <HAL_RCC_OscConfig+0x132>
 8003c2e:	682b      	ldr	r3, [r5, #0]
 8003c30:	6922      	ldr	r2, [r4, #16]
 8003c32:	f023 03f8 	bic.w	r3, r3, #248	; 0xf8
 8003c36:	ea43 03c2 	orr.w	r3, r3, r2, lsl #3
 8003c3a:	602b      	str	r3, [r5, #0]
 8003c3c:	e770      	b.n	8003b20 <HAL_RCC_OscConfig+0x14>
 8003c3e:	f7ff ff17 	bl	8003a70 <HAL_GetTick>
 8003c42:	1b80      	subs	r0, r0, r6
 8003c44:	2802      	cmp	r0, #2
 8003c46:	d9ef      	bls.n	8003c28 <HAL_RCC_OscConfig+0x11c>
 8003c48:	e7a3      	b.n	8003b92 <HAL_RCC_OscConfig+0x86>
 8003c4a:	601a      	str	r2, [r3, #0]
 8003c4c:	f7ff ff10 	bl	8003a70 <HAL_GetTick>
 8003c50:	4e61      	ldr	r6, [pc, #388]	; (8003dd8 <HAL_RCC_OscConfig+0x2cc>)
 8003c52:	4605      	mov	r5, r0
 8003c54:	6833      	ldr	r3, [r6, #0]
 8003c56:	0799      	lsls	r1, r3, #30
 8003c58:	f57f af62 	bpl.w	8003b20 <HAL_RCC_OscConfig+0x14>
 8003c5c:	f7ff ff08 	bl	8003a70 <HAL_GetTick>
 8003c60:	1b40      	subs	r0, r0, r5
 8003c62:	2802      	cmp	r0, #2
 8003c64:	d9f6      	bls.n	8003c54 <HAL_RCC_OscConfig+0x148>
 8003c66:	e794      	b.n	8003b92 <HAL_RCC_OscConfig+0x86>
 8003c68:	6962      	ldr	r2, [r4, #20]
 8003c6a:	4b5d      	ldr	r3, [pc, #372]	; (8003de0 <HAL_RCC_OscConfig+0x2d4>)
 8003c6c:	b17a      	cbz	r2, 8003c8e <HAL_RCC_OscConfig+0x182>
 8003c6e:	2201      	movs	r2, #1
 8003c70:	601a      	str	r2, [r3, #0]
 8003c72:	f7ff fefd 	bl	8003a70 <HAL_GetTick>
 8003c76:	4e58      	ldr	r6, [pc, #352]	; (8003dd8 <HAL_RCC_OscConfig+0x2cc>)
 8003c78:	4605      	mov	r5, r0
 8003c7a:	6f73      	ldr	r3, [r6, #116]	; 0x74
 8003c7c:	079f      	lsls	r7, r3, #30
 8003c7e:	f53f af53 	bmi.w	8003b28 <HAL_RCC_OscConfig+0x1c>
 8003c82:	f7ff fef5 	bl	8003a70 <HAL_GetTick>
 8003c86:	1b40      	subs	r0, r0, r5
 8003c88:	2802      	cmp	r0, #2
 8003c8a:	d9f6      	bls.n	8003c7a <HAL_RCC_OscConfig+0x16e>
 8003c8c:	e781      	b.n	8003b92 <HAL_RCC_OscConfig+0x86>
 8003c8e:	601a      	str	r2, [r3, #0]
 8003c90:	f7ff feee 	bl	8003a70 <HAL_GetTick>
 8003c94:	4e50      	ldr	r6, [pc, #320]	; (8003dd8 <HAL_RCC_OscConfig+0x2cc>)
 8003c96:	4605      	mov	r5, r0
 8003c98:	6f73      	ldr	r3, [r6, #116]	; 0x74
 8003c9a:	0798      	lsls	r0, r3, #30
 8003c9c:	f57f af44 	bpl.w	8003b28 <HAL_RCC_OscConfig+0x1c>
 8003ca0:	f7ff fee6 	bl	8003a70 <HAL_GetTick>
 8003ca4:	1b40      	subs	r0, r0, r5
 8003ca6:	2802      	cmp	r0, #2
 8003ca8:	d9f6      	bls.n	8003c98 <HAL_RCC_OscConfig+0x18c>
 8003caa:	e772      	b.n	8003b92 <HAL_RCC_OscConfig+0x86>
 8003cac:	4b4a      	ldr	r3, [pc, #296]	; (8003dd8 <HAL_RCC_OscConfig+0x2cc>)
 8003cae:	6c1a      	ldr	r2, [r3, #64]	; 0x40
 8003cb0:	f012 5280 	ands.w	r2, r2, #268435456	; 0x10000000
 8003cb4:	d128      	bne.n	8003d08 <HAL_RCC_OscConfig+0x1fc>
 8003cb6:	9201      	str	r2, [sp, #4]
 8003cb8:	6c1a      	ldr	r2, [r3, #64]	; 0x40
 8003cba:	f042 5280 	orr.w	r2, r2, #268435456	; 0x10000000
 8003cbe:	641a      	str	r2, [r3, #64]	; 0x40
 8003cc0:	6c1b      	ldr	r3, [r3, #64]	; 0x40
 8003cc2:	f003 5380 	and.w	r3, r3, #268435456	; 0x10000000
 8003cc6:	9301      	str	r3, [sp, #4]
 8003cc8:	9b01      	ldr	r3, [sp, #4]
 8003cca:	2701      	movs	r7, #1
 8003ccc:	4d45      	ldr	r5, [pc, #276]	; (8003de4 <HAL_RCC_OscConfig+0x2d8>)
 8003cce:	682b      	ldr	r3, [r5, #0]
 8003cd0:	05d9      	lsls	r1, r3, #23
 8003cd2:	d51b      	bpl.n	8003d0c <HAL_RCC_OscConfig+0x200>
 8003cd4:	68a3      	ldr	r3, [r4, #8]
 8003cd6:	4d40      	ldr	r5, [pc, #256]	; (8003dd8 <HAL_RCC_OscConfig+0x2cc>)
 8003cd8:	2b01      	cmp	r3, #1
 8003cda:	d127      	bne.n	8003d2c <HAL_RCC_OscConfig+0x220>
 8003cdc:	6f2b      	ldr	r3, [r5, #112]	; 0x70
 8003cde:	f043 0301 	orr.w	r3, r3, #1
 8003ce2:	672b      	str	r3, [r5, #112]	; 0x70
 8003ce4:	f7ff fec4 	bl	8003a70 <HAL_GetTick>
 8003ce8:	4e3b      	ldr	r6, [pc, #236]	; (8003dd8 <HAL_RCC_OscConfig+0x2cc>)
 8003cea:	4605      	mov	r5, r0
 8003cec:	f241 3888 	movw	r8, #5000	; 0x1388
 8003cf0:	6f33      	ldr	r3, [r6, #112]	; 0x70
 8003cf2:	079b      	lsls	r3, r3, #30
 8003cf4:	d539      	bpl.n	8003d6a <HAL_RCC_OscConfig+0x25e>
 8003cf6:	2f00      	cmp	r7, #0
 8003cf8:	f43f af1a 	beq.w	8003b30 <HAL_RCC_OscConfig+0x24>
 8003cfc:	4a36      	ldr	r2, [pc, #216]	; (8003dd8 <HAL_RCC_OscConfig+0x2cc>)
 8003cfe:	6c13      	ldr	r3, [r2, #64]	; 0x40
 8003d00:	f023 5380 	bic.w	r3, r3, #268435456	; 0x10000000
 8003d04:	6413      	str	r3, [r2, #64]	; 0x40
 8003d06:	e713      	b.n	8003b30 <HAL_RCC_OscConfig+0x24>
 8003d08:	2700      	movs	r7, #0
 8003d0a:	e7df      	b.n	8003ccc <HAL_RCC_OscConfig+0x1c0>
 8003d0c:	682b      	ldr	r3, [r5, #0]
 8003d0e:	f443 7380 	orr.w	r3, r3, #256	; 0x100
 8003d12:	602b      	str	r3, [r5, #0]
 8003d14:	f7ff feac 	bl	8003a70 <HAL_GetTick>
 8003d18:	4606      	mov	r6, r0
 8003d1a:	682b      	ldr	r3, [r5, #0]
 8003d1c:	05da      	lsls	r2, r3, #23
 8003d1e:	d4d9      	bmi.n	8003cd4 <HAL_RCC_OscConfig+0x1c8>
 8003d20:	f7ff fea6 	bl	8003a70 <HAL_GetTick>
 8003d24:	1b80      	subs	r0, r0, r6
 8003d26:	2802      	cmp	r0, #2
 8003d28:	d9f7      	bls.n	8003d1a <HAL_RCC_OscConfig+0x20e>
 8003d2a:	e732      	b.n	8003b92 <HAL_RCC_OscConfig+0x86>
 8003d2c:	2b05      	cmp	r3, #5
 8003d2e:	d104      	bne.n	8003d3a <HAL_RCC_OscConfig+0x22e>
 8003d30:	6f2b      	ldr	r3, [r5, #112]	; 0x70
 8003d32:	f043 0304 	orr.w	r3, r3, #4
 8003d36:	672b      	str	r3, [r5, #112]	; 0x70
 8003d38:	e7d0      	b.n	8003cdc <HAL_RCC_OscConfig+0x1d0>
 8003d3a:	6f2a      	ldr	r2, [r5, #112]	; 0x70
 8003d3c:	f022 0201 	bic.w	r2, r2, #1
 8003d40:	672a      	str	r2, [r5, #112]	; 0x70
 8003d42:	6f2a      	ldr	r2, [r5, #112]	; 0x70
 8003d44:	f022 0204 	bic.w	r2, r2, #4
 8003d48:	672a      	str	r2, [r5, #112]	; 0x70
 8003d4a:	2b00      	cmp	r3, #0
 8003d4c:	d1ca      	bne.n	8003ce4 <HAL_RCC_OscConfig+0x1d8>
 8003d4e:	f7ff fe8f 	bl	8003a70 <HAL_GetTick>
 8003d52:	f241 3888 	movw	r8, #5000	; 0x1388
 8003d56:	4606      	mov	r6, r0
 8003d58:	6f2b      	ldr	r3, [r5, #112]	; 0x70
 8003d5a:	0798      	lsls	r0, r3, #30
 8003d5c:	d5cb      	bpl.n	8003cf6 <HAL_RCC_OscConfig+0x1ea>
 8003d5e:	f7ff fe87 	bl	8003a70 <HAL_GetTick>
 8003d62:	1b80      	subs	r0, r0, r6
 8003d64:	4540      	cmp	r0, r8
 8003d66:	d9f7      	bls.n	8003d58 <HAL_RCC_OscConfig+0x24c>
 8003d68:	e713      	b.n	8003b92 <HAL_RCC_OscConfig+0x86>
 8003d6a:	f7ff fe81 	bl	8003a70 <HAL_GetTick>
 8003d6e:	1b40      	subs	r0, r0, r5
 8003d70:	4540      	cmp	r0, r8
 8003d72:	d9bd      	bls.n	8003cf0 <HAL_RCC_OscConfig+0x1e4>
 8003d74:	e70d      	b.n	8003b92 <HAL_RCC_OscConfig+0x86>
 8003d76:	4d18      	ldr	r5, [pc, #96]	; (8003dd8 <HAL_RCC_OscConfig+0x2cc>)
 8003d78:	68ab      	ldr	r3, [r5, #8]
 8003d7a:	f003 030c 	and.w	r3, r3, #12
 8003d7e:	2b08      	cmp	r3, #8
 8003d80:	d047      	beq.n	8003e12 <HAL_RCC_OscConfig+0x306>
 8003d82:	4e19      	ldr	r6, [pc, #100]	; (8003de8 <HAL_RCC_OscConfig+0x2dc>)
 8003d84:	2300      	movs	r3, #0
 8003d86:	2802      	cmp	r0, #2
 8003d88:	6033      	str	r3, [r6, #0]
 8003d8a:	d135      	bne.n	8003df8 <HAL_RCC_OscConfig+0x2ec>
 8003d8c:	f7ff fe70 	bl	8003a70 <HAL_GetTick>
 8003d90:	4607      	mov	r7, r0
 8003d92:	682b      	ldr	r3, [r5, #0]
 8003d94:	0199      	lsls	r1, r3, #6
 8003d96:	d429      	bmi.n	8003dec <HAL_RCC_OscConfig+0x2e0>
 8003d98:	e9d4 3207 	ldrd	r3, r2, [r4, #28]
 8003d9c:	4313      	orrs	r3, r2
 8003d9e:	6a62      	ldr	r2, [r4, #36]	; 0x24
 8003da0:	ea43 1382 	orr.w	r3, r3, r2, lsl #6
 8003da4:	6ae2      	ldr	r2, [r4, #44]	; 0x2c
 8003da6:	ea43 6302 	orr.w	r3, r3, r2, lsl #24
 8003daa:	6aa2      	ldr	r2, [r4, #40]	; 0x28
 8003dac:	0852      	lsrs	r2, r2, #1
 8003dae:	3a01      	subs	r2, #1
 8003db0:	ea43 4302 	orr.w	r3, r3, r2, lsl #16
 8003db4:	606b      	str	r3, [r5, #4]
 8003db6:	2301      	movs	r3, #1
 8003db8:	6033      	str	r3, [r6, #0]
 8003dba:	f7ff fe59 	bl	8003a70 <HAL_GetTick>
 8003dbe:	4d06      	ldr	r5, [pc, #24]	; (8003dd8 <HAL_RCC_OscConfig+0x2cc>)
 8003dc0:	4604      	mov	r4, r0
 8003dc2:	682b      	ldr	r3, [r5, #0]
 8003dc4:	019a      	lsls	r2, r3, #6
 8003dc6:	f53f aeb7 	bmi.w	8003b38 <HAL_RCC_OscConfig+0x2c>
 8003dca:	f7ff fe51 	bl	8003a70 <HAL_GetTick>
 8003dce:	1b00      	subs	r0, r0, r4
 8003dd0:	2802      	cmp	r0, #2
 8003dd2:	d9f6      	bls.n	8003dc2 <HAL_RCC_OscConfig+0x2b6>
 8003dd4:	e6dd      	b.n	8003b92 <HAL_RCC_OscConfig+0x86>
 8003dd6:	bf00      	nop
 8003dd8:	40023800 	.word	0x40023800
 8003ddc:	42470000 	.word	0x42470000
 8003de0:	42470e80 	.word	0x42470e80
 8003de4:	40007000 	.word	0x40007000
 8003de8:	42470060 	.word	0x42470060
 8003dec:	f7ff fe40 	bl	8003a70 <HAL_GetTick>
 8003df0:	1bc0      	subs	r0, r0, r7
 8003df2:	2802      	cmp	r0, #2
 8003df4:	d9cd      	bls.n	8003d92 <HAL_RCC_OscConfig+0x286>
 8003df6:	e6cc      	b.n	8003b92 <HAL_RCC_OscConfig+0x86>
 8003df8:	f7ff fe3a 	bl	8003a70 <HAL_GetTick>
 8003dfc:	4604      	mov	r4, r0
 8003dfe:	682b      	ldr	r3, [r5, #0]
 8003e00:	019b      	lsls	r3, r3, #6
 8003e02:	f57f ae99 	bpl.w	8003b38 <HAL_RCC_OscConfig+0x2c>
 8003e06:	f7ff fe33 	bl	8003a70 <HAL_GetTick>
 8003e0a:	1b00      	subs	r0, r0, r4
 8003e0c:	2802      	cmp	r0, #2
 8003e0e:	d9f6      	bls.n	8003dfe <HAL_RCC_OscConfig+0x2f2>
 8003e10:	e6bf      	b.n	8003b92 <HAL_RCC_OscConfig+0x86>
 8003e12:	2801      	cmp	r0, #1
 8003e14:	f43f aebe 	beq.w	8003b94 <HAL_RCC_OscConfig+0x88>
 8003e18:	686b      	ldr	r3, [r5, #4]
 8003e1a:	69e2      	ldr	r2, [r4, #28]
 8003e1c:	f403 0180 	and.w	r1, r3, #4194304	; 0x400000
 8003e20:	4291      	cmp	r1, r2
 8003e22:	f47f aea0 	bne.w	8003b66 <HAL_RCC_OscConfig+0x5a>
 8003e26:	6a21      	ldr	r1, [r4, #32]
 8003e28:	f003 023f 	and.w	r2, r3, #63	; 0x3f
 8003e2c:	428a      	cmp	r2, r1
 8003e2e:	f47f ae9a 	bne.w	8003b66 <HAL_RCC_OscConfig+0x5a>
 8003e32:	6a61      	ldr	r1, [r4, #36]	; 0x24
 8003e34:	f647 72c0 	movw	r2, #32704	; 0x7fc0
 8003e38:	401a      	ands	r2, r3
 8003e3a:	ebb2 1f81 	cmp.w	r2, r1, lsl #6
 8003e3e:	f47f ae92 	bne.w	8003b66 <HAL_RCC_OscConfig+0x5a>
 8003e42:	6aa2      	ldr	r2, [r4, #40]	; 0x28
 8003e44:	0852      	lsrs	r2, r2, #1
 8003e46:	f403 3140 	and.w	r1, r3, #196608	; 0x30000
 8003e4a:	3a01      	subs	r2, #1
 8003e4c:	ebb1 4f02 	cmp.w	r1, r2, lsl #16
 8003e50:	f47f ae89 	bne.w	8003b66 <HAL_RCC_OscConfig+0x5a>
 8003e54:	6ae2      	ldr	r2, [r4, #44]	; 0x2c
 8003e56:	f003 6370 	and.w	r3, r3, #251658240	; 0xf000000
 8003e5a:	ebb3 6f02 	cmp.w	r3, r2, lsl #24
 8003e5e:	f43f ae6b 	beq.w	8003b38 <HAL_RCC_OscConfig+0x2c>
 8003e62:	e680      	b.n	8003b66 <HAL_RCC_OscConfig+0x5a>

08003e64 <HAL_RCC_GetSysClockFreq>:
 8003e64:	4913      	ldr	r1, [pc, #76]	; (8003eb4 <HAL_RCC_GetSysClockFreq+0x50>)
 8003e66:	b508      	push	{r3, lr}
 8003e68:	688b      	ldr	r3, [r1, #8]
 8003e6a:	f003 030c 	and.w	r3, r3, #12
 8003e6e:	2b04      	cmp	r3, #4
 8003e70:	d01c      	beq.n	8003eac <HAL_RCC_GetSysClockFreq+0x48>
 8003e72:	2b08      	cmp	r3, #8
 8003e74:	d11c      	bne.n	8003eb0 <HAL_RCC_GetSysClockFreq+0x4c>
 8003e76:	684a      	ldr	r2, [r1, #4]
 8003e78:	684b      	ldr	r3, [r1, #4]
 8003e7a:	6849      	ldr	r1, [r1, #4]
 8003e7c:	f413 0380 	ands.w	r3, r3, #4194304	; 0x400000
 8003e80:	bf14      	ite	ne
 8003e82:	480d      	ldrne	r0, [pc, #52]	; (8003eb8 <HAL_RCC_GetSysClockFreq+0x54>)
 8003e84:	480d      	ldreq	r0, [pc, #52]	; (8003ebc <HAL_RCC_GetSysClockFreq+0x58>)
 8003e86:	f3c1 1188 	ubfx	r1, r1, #6, #9
 8003e8a:	bf18      	it	ne
 8003e8c:	2300      	movne	r3, #0
 8003e8e:	f002 023f 	and.w	r2, r2, #63	; 0x3f
 8003e92:	fba1 0100 	umull	r0, r1, r1, r0
 8003e96:	f7fc fe87 	bl	8000ba8 <__aeabi_uldivmod>
 8003e9a:	4b06      	ldr	r3, [pc, #24]	; (8003eb4 <HAL_RCC_GetSysClockFreq+0x50>)
 8003e9c:	685b      	ldr	r3, [r3, #4]
 8003e9e:	f3c3 4301 	ubfx	r3, r3, #16, #2
 8003ea2:	3301      	adds	r3, #1
 8003ea4:	005b      	lsls	r3, r3, #1
 8003ea6:	fbb0 f0f3 	udiv	r0, r0, r3
 8003eaa:	bd08      	pop	{r3, pc}
 8003eac:	4802      	ldr	r0, [pc, #8]	; (8003eb8 <HAL_RCC_GetSysClockFreq+0x54>)
 8003eae:	e7fc      	b.n	8003eaa <HAL_RCC_GetSysClockFreq+0x46>
 8003eb0:	4802      	ldr	r0, [pc, #8]	; (8003ebc <HAL_RCC_GetSysClockFreq+0x58>)
 8003eb2:	e7fa      	b.n	8003eaa <HAL_RCC_GetSysClockFreq+0x46>
 8003eb4:	40023800 	.word	0x40023800
 8003eb8:	017d7840 	.word	0x017d7840
 8003ebc:	00f42400 	.word	0x00f42400

08003ec0 <HAL_RCC_ClockConfig>:
 8003ec0:	e92d 41f0 	stmdb	sp!, {r4, r5, r6, r7, r8, lr}
 8003ec4:	460d      	mov	r5, r1
 8003ec6:	4604      	mov	r4, r0
 8003ec8:	b910      	cbnz	r0, 8003ed0 <HAL_RCC_ClockConfig+0x10>
 8003eca:	2001      	movs	r0, #1
 8003ecc:	e8bd 81f0 	ldmia.w	sp!, {r4, r5, r6, r7, r8, pc}
 8003ed0:	4b44      	ldr	r3, [pc, #272]	; (8003fe4 <HAL_RCC_ClockConfig+0x124>)
 8003ed2:	681a      	ldr	r2, [r3, #0]
 8003ed4:	f002 0207 	and.w	r2, r2, #7
 8003ed8:	428a      	cmp	r2, r1
 8003eda:	d328      	bcc.n	8003f2e <HAL_RCC_ClockConfig+0x6e>
 8003edc:	6822      	ldr	r2, [r4, #0]
 8003ede:	0797      	lsls	r7, r2, #30
 8003ee0:	d42d      	bmi.n	8003f3e <HAL_RCC_ClockConfig+0x7e>
 8003ee2:	07d0      	lsls	r0, r2, #31
 8003ee4:	d441      	bmi.n	8003f6a <HAL_RCC_ClockConfig+0xaa>
 8003ee6:	4b3f      	ldr	r3, [pc, #252]	; (8003fe4 <HAL_RCC_ClockConfig+0x124>)
 8003ee8:	681a      	ldr	r2, [r3, #0]
 8003eea:	f002 0207 	and.w	r2, r2, #7
 8003eee:	42aa      	cmp	r2, r5
 8003ef0:	d866      	bhi.n	8003fc0 <HAL_RCC_ClockConfig+0x100>
 8003ef2:	6822      	ldr	r2, [r4, #0]
 8003ef4:	0751      	lsls	r1, r2, #29
 8003ef6:	d46c      	bmi.n	8003fd2 <HAL_RCC_ClockConfig+0x112>
 8003ef8:	0713      	lsls	r3, r2, #28
 8003efa:	d507      	bpl.n	8003f0c <HAL_RCC_ClockConfig+0x4c>
 8003efc:	4a3a      	ldr	r2, [pc, #232]	; (8003fe8 <HAL_RCC_ClockConfig+0x128>)
 8003efe:	6921      	ldr	r1, [r4, #16]
 8003f00:	6893      	ldr	r3, [r2, #8]
 8003f02:	f423 4360 	bic.w	r3, r3, #57344	; 0xe000
 8003f06:	ea43 03c1 	orr.w	r3, r3, r1, lsl #3
 8003f0a:	6093      	str	r3, [r2, #8]
 8003f0c:	f7ff ffaa 	bl	8003e64 <HAL_RCC_GetSysClockFreq>
 8003f10:	4b35      	ldr	r3, [pc, #212]	; (8003fe8 <HAL_RCC_ClockConfig+0x128>)
 8003f12:	4a36      	ldr	r2, [pc, #216]	; (8003fec <HAL_RCC_ClockConfig+0x12c>)
 8003f14:	689b      	ldr	r3, [r3, #8]
 8003f16:	f3c3 1303 	ubfx	r3, r3, #4, #4
 8003f1a:	5cd3      	ldrb	r3, [r2, r3]
 8003f1c:	40d8      	lsrs	r0, r3
 8003f1e:	4b34      	ldr	r3, [pc, #208]	; (8003ff0 <HAL_RCC_ClockConfig+0x130>)
 8003f20:	6018      	str	r0, [r3, #0]
 8003f22:	4b34      	ldr	r3, [pc, #208]	; (8003ff4 <HAL_RCC_ClockConfig+0x134>)
 8003f24:	6818      	ldr	r0, [r3, #0]
 8003f26:	f7ff fd7f 	bl	8003a28 <HAL_InitTick>
 8003f2a:	2000      	movs	r0, #0
 8003f2c:	e7ce      	b.n	8003ecc <HAL_RCC_ClockConfig+0xc>
 8003f2e:	b2ca      	uxtb	r2, r1
 8003f30:	701a      	strb	r2, [r3, #0]
 8003f32:	681b      	ldr	r3, [r3, #0]
 8003f34:	f003 0307 	and.w	r3, r3, #7
 8003f38:	428b      	cmp	r3, r1
 8003f3a:	d1c6      	bne.n	8003eca <HAL_RCC_ClockConfig+0xa>
 8003f3c:	e7ce      	b.n	8003edc <HAL_RCC_ClockConfig+0x1c>
 8003f3e:	4b2a      	ldr	r3, [pc, #168]	; (8003fe8 <HAL_RCC_ClockConfig+0x128>)
 8003f40:	f012 0f04 	tst.w	r2, #4
 8003f44:	bf1e      	ittt	ne
 8003f46:	6899      	ldrne	r1, [r3, #8]
 8003f48:	f441 51e0 	orrne.w	r1, r1, #7168	; 0x1c00
 8003f4c:	6099      	strne	r1, [r3, #8]
 8003f4e:	0716      	lsls	r6, r2, #28
 8003f50:	bf42      	ittt	mi
 8003f52:	6899      	ldrmi	r1, [r3, #8]
 8003f54:	f441 4160 	orrmi.w	r1, r1, #57344	; 0xe000
 8003f58:	6099      	strmi	r1, [r3, #8]
 8003f5a:	4923      	ldr	r1, [pc, #140]	; (8003fe8 <HAL_RCC_ClockConfig+0x128>)
 8003f5c:	68a0      	ldr	r0, [r4, #8]
 8003f5e:	688b      	ldr	r3, [r1, #8]
 8003f60:	f023 03f0 	bic.w	r3, r3, #240	; 0xf0
 8003f64:	4303      	orrs	r3, r0
 8003f66:	608b      	str	r3, [r1, #8]
 8003f68:	e7bb      	b.n	8003ee2 <HAL_RCC_ClockConfig+0x22>
 8003f6a:	6862      	ldr	r2, [r4, #4]
 8003f6c:	4b1e      	ldr	r3, [pc, #120]	; (8003fe8 <HAL_RCC_ClockConfig+0x128>)
 8003f6e:	2a01      	cmp	r2, #1
 8003f70:	d11c      	bne.n	8003fac <HAL_RCC_ClockConfig+0xec>
 8003f72:	681b      	ldr	r3, [r3, #0]
 8003f74:	f413 3f00 	tst.w	r3, #131072	; 0x20000
 8003f78:	d0a7      	beq.n	8003eca <HAL_RCC_ClockConfig+0xa>
 8003f7a:	4e1b      	ldr	r6, [pc, #108]	; (8003fe8 <HAL_RCC_ClockConfig+0x128>)
 8003f7c:	68b3      	ldr	r3, [r6, #8]
 8003f7e:	f023 0303 	bic.w	r3, r3, #3
 8003f82:	4313      	orrs	r3, r2
 8003f84:	60b3      	str	r3, [r6, #8]
 8003f86:	f7ff fd73 	bl	8003a70 <HAL_GetTick>
 8003f8a:	f241 3888 	movw	r8, #5000	; 0x1388
 8003f8e:	4607      	mov	r7, r0
 8003f90:	68b3      	ldr	r3, [r6, #8]
 8003f92:	6862      	ldr	r2, [r4, #4]
 8003f94:	f003 030c 	and.w	r3, r3, #12
 8003f98:	ebb3 0f82 	cmp.w	r3, r2, lsl #2
 8003f9c:	d0a3      	beq.n	8003ee6 <HAL_RCC_ClockConfig+0x26>
 8003f9e:	f7ff fd67 	bl	8003a70 <HAL_GetTick>
 8003fa2:	1bc0      	subs	r0, r0, r7
 8003fa4:	4540      	cmp	r0, r8
 8003fa6:	d9f3      	bls.n	8003f90 <HAL_RCC_ClockConfig+0xd0>
 8003fa8:	2003      	movs	r0, #3
 8003faa:	e78f      	b.n	8003ecc <HAL_RCC_ClockConfig+0xc>
 8003fac:	1e91      	subs	r1, r2, #2
 8003fae:	2901      	cmp	r1, #1
 8003fb0:	681b      	ldr	r3, [r3, #0]
 8003fb2:	d802      	bhi.n	8003fba <HAL_RCC_ClockConfig+0xfa>
 8003fb4:	f013 7f00 	tst.w	r3, #33554432	; 0x2000000
 8003fb8:	e7de      	b.n	8003f78 <HAL_RCC_ClockConfig+0xb8>
 8003fba:	f013 0f02 	tst.w	r3, #2
 8003fbe:	e7db      	b.n	8003f78 <HAL_RCC_ClockConfig+0xb8>
 8003fc0:	b2ea      	uxtb	r2, r5
 8003fc2:	701a      	strb	r2, [r3, #0]
 8003fc4:	681b      	ldr	r3, [r3, #0]
 8003fc6:	f003 0307 	and.w	r3, r3, #7
 8003fca:	42ab      	cmp	r3, r5
 8003fcc:	f47f af7d 	bne.w	8003eca <HAL_RCC_ClockConfig+0xa>
 8003fd0:	e78f      	b.n	8003ef2 <HAL_RCC_ClockConfig+0x32>
 8003fd2:	4905      	ldr	r1, [pc, #20]	; (8003fe8 <HAL_RCC_ClockConfig+0x128>)
 8003fd4:	68e0      	ldr	r0, [r4, #12]
 8003fd6:	688b      	ldr	r3, [r1, #8]
 8003fd8:	f423 53e0 	bic.w	r3, r3, #7168	; 0x1c00
 8003fdc:	4303      	orrs	r3, r0
 8003fde:	608b      	str	r3, [r1, #8]
 8003fe0:	e78a      	b.n	8003ef8 <HAL_RCC_ClockConfig+0x38>
 8003fe2:	bf00      	nop
 8003fe4:	40023c00 	.word	0x40023c00
 8003fe8:	40023800 	.word	0x40023800
 8003fec:	08006098 	.word	0x08006098
 8003ff0:	20000000 	.word	0x20000000
 8003ff4:	20000008 	.word	0x20000008

08003ff8 <LL_GPIO_Init>:
 8003ff8:	e92d 4ff0 	stmdb	sp!, {r4, r5, r6, r7, r8, r9, sl, fp, lr}
 8003ffc:	4602      	mov	r2, r0
 8003ffe:	680d      	ldr	r5, [r1, #0]
 8004000:	fa95 f4a5 	rbit	r4, r5
 8004004:	f04f 0e01 	mov.w	lr, #1
 8004008:	fab4 f484 	clz	r4, r4
 800400c:	2603      	movs	r6, #3
 800400e:	f04f 0c0f 	mov.w	ip, #15
 8004012:	fa35 f004 	lsrs.w	r0, r5, r4
 8004016:	d101      	bne.n	800401c <LL_GPIO_Init+0x24>
 8004018:	e8bd 8ff0 	ldmia.w	sp!, {r4, r5, r6, r7, r8, r9, sl, fp, pc}
 800401c:	fa0e f304 	lsl.w	r3, lr, r4
 8004020:	402b      	ands	r3, r5
 8004022:	d06d      	beq.n	8004100 <LL_GPIO_Init+0x108>
 8004024:	6848      	ldr	r0, [r1, #4]
 8004026:	1e47      	subs	r7, r0, #1
 8004028:	2f01      	cmp	r7, #1
 800402a:	d81e      	bhi.n	800406a <LL_GPIO_Init+0x72>
 800402c:	6897      	ldr	r7, [r2, #8]
 800402e:	fa93 f8a3 	rbit	r8, r3
 8004032:	fab8 f888 	clz	r8, r8
 8004036:	fa93 f9a3 	rbit	r9, r3
 800403a:	ea4f 0848 	mov.w	r8, r8, lsl #1
 800403e:	fa06 f808 	lsl.w	r8, r6, r8
 8004042:	ea27 0808 	bic.w	r8, r7, r8
 8004046:	fab9 f989 	clz	r9, r9
 800404a:	688f      	ldr	r7, [r1, #8]
 800404c:	ea4f 0949 	mov.w	r9, r9, lsl #1
 8004050:	fa07 f709 	lsl.w	r7, r7, r9
 8004054:	ea48 0707 	orr.w	r7, r8, r7
 8004058:	6097      	str	r7, [r2, #8]
 800405a:	6857      	ldr	r7, [r2, #4]
 800405c:	ea27 0803 	bic.w	r8, r7, r3
 8004060:	68cf      	ldr	r7, [r1, #12]
 8004062:	435f      	muls	r7, r3
 8004064:	ea48 0707 	orr.w	r7, r8, r7
 8004068:	6057      	str	r7, [r2, #4]
 800406a:	68d7      	ldr	r7, [r2, #12]
 800406c:	fa93 f8a3 	rbit	r8, r3
 8004070:	fab8 f888 	clz	r8, r8
 8004074:	fa93 f9a3 	rbit	r9, r3
 8004078:	ea4f 0848 	mov.w	r8, r8, lsl #1
 800407c:	fa06 f808 	lsl.w	r8, r6, r8
 8004080:	ea27 0808 	bic.w	r8, r7, r8
 8004084:	fab9 f989 	clz	r9, r9
 8004088:	690f      	ldr	r7, [r1, #16]
 800408a:	ea4f 0949 	mov.w	r9, r9, lsl #1
 800408e:	fa07 f709 	lsl.w	r7, r7, r9
 8004092:	ea48 0707 	orr.w	r7, r8, r7
 8004096:	2802      	cmp	r0, #2
 8004098:	60d7      	str	r7, [r2, #12]
 800409a:	d11d      	bne.n	80040d8 <LL_GPIO_Init+0xe0>
 800409c:	fa93 f7a3 	rbit	r7, r3
 80040a0:	fab7 f787 	clz	r7, r7
 80040a4:	2f07      	cmp	r7, #7
 80040a6:	f8d1 a014 	ldr.w	sl, [r1, #20]
 80040aa:	dc2b      	bgt.n	8004104 <LL_GPIO_Init+0x10c>
 80040ac:	6a17      	ldr	r7, [r2, #32]
 80040ae:	fa93 f9a3 	rbit	r9, r3
 80040b2:	fab9 f989 	clz	r9, r9
 80040b6:	fa93 f8a3 	rbit	r8, r3
 80040ba:	fab8 f888 	clz	r8, r8
 80040be:	ea4f 0989 	mov.w	r9, r9, lsl #2
 80040c2:	fa0c f909 	lsl.w	r9, ip, r9
 80040c6:	ea4f 0888 	mov.w	r8, r8, lsl #2
 80040ca:	ea27 0709 	bic.w	r7, r7, r9
 80040ce:	fa0a fa08 	lsl.w	sl, sl, r8
 80040d2:	ea47 070a 	orr.w	r7, r7, sl
 80040d6:	6217      	str	r7, [r2, #32]
 80040d8:	f8d2 8000 	ldr.w	r8, [r2]
 80040dc:	fa93 f7a3 	rbit	r7, r3
 80040e0:	fab7 f787 	clz	r7, r7
 80040e4:	fa93 f3a3 	rbit	r3, r3
 80040e8:	fab3 f383 	clz	r3, r3
 80040ec:	007f      	lsls	r7, r7, #1
 80040ee:	fa06 f707 	lsl.w	r7, r6, r7
 80040f2:	005b      	lsls	r3, r3, #1
 80040f4:	ea28 0707 	bic.w	r7, r8, r7
 80040f8:	fa00 f303 	lsl.w	r3, r0, r3
 80040fc:	433b      	orrs	r3, r7
 80040fe:	6013      	str	r3, [r2, #0]
 8004100:	3401      	adds	r4, #1
 8004102:	e786      	b.n	8004012 <LL_GPIO_Init+0x1a>
 8004104:	f8d2 b024 	ldr.w	fp, [r2, #36]	; 0x24
 8004108:	0a1f      	lsrs	r7, r3, #8
 800410a:	fa97 f8a7 	rbit	r8, r7
 800410e:	fab8 f888 	clz	r8, r8
 8004112:	fa97 f7a7 	rbit	r7, r7
 8004116:	fab7 f787 	clz	r7, r7
 800411a:	ea4f 0888 	mov.w	r8, r8, lsl #2
 800411e:	fa0c f808 	lsl.w	r8, ip, r8
 8004122:	00bf      	lsls	r7, r7, #2
 8004124:	ea2b 0b08 	bic.w	fp, fp, r8
 8004128:	fa0a f707 	lsl.w	r7, sl, r7
 800412c:	ea4b 0707 	orr.w	r7, fp, r7
 8004130:	6257      	str	r7, [r2, #36]	; 0x24
 8004132:	e7d1      	b.n	80040d8 <LL_GPIO_Init+0xe0>

08004134 <RCC_GetHCLKClockFreq>:
 8004134:	4b03      	ldr	r3, [pc, #12]	; (8004144 <RCC_GetHCLKClockFreq+0x10>)
 8004136:	4a04      	ldr	r2, [pc, #16]	; (8004148 <RCC_GetHCLKClockFreq+0x14>)
 8004138:	689b      	ldr	r3, [r3, #8]
 800413a:	f3c3 1303 	ubfx	r3, r3, #4, #4
 800413e:	5cd3      	ldrb	r3, [r2, r3]
 8004140:	40d8      	lsrs	r0, r3
 8004142:	4770      	bx	lr
 8004144:	40023800 	.word	0x40023800
 8004148:	08006098 	.word	0x08006098

0800414c <RCC_GetPCLK1ClockFreq>:
 800414c:	4b03      	ldr	r3, [pc, #12]	; (800415c <RCC_GetPCLK1ClockFreq+0x10>)
 800414e:	4a04      	ldr	r2, [pc, #16]	; (8004160 <RCC_GetPCLK1ClockFreq+0x14>)
 8004150:	689b      	ldr	r3, [r3, #8]
 8004152:	f3c3 2382 	ubfx	r3, r3, #10, #3
 8004156:	5cd3      	ldrb	r3, [r2, r3]
 8004158:	40d8      	lsrs	r0, r3
 800415a:	4770      	bx	lr
 800415c:	40023800 	.word	0x40023800
 8004160:	080060a8 	.word	0x080060a8

08004164 <RCC_GetPCLK2ClockFreq>:
 8004164:	4b03      	ldr	r3, [pc, #12]	; (8004174 <RCC_GetPCLK2ClockFreq+0x10>)
 8004166:	4a04      	ldr	r2, [pc, #16]	; (8004178 <RCC_GetPCLK2ClockFreq+0x14>)
 8004168:	689b      	ldr	r3, [r3, #8]
 800416a:	f3c3 3342 	ubfx	r3, r3, #13, #3
 800416e:	5cd3      	ldrb	r3, [r2, r3]
 8004170:	40d8      	lsrs	r0, r3
 8004172:	4770      	bx	lr
 8004174:	40023800 	.word	0x40023800
 8004178:	080060a8 	.word	0x080060a8

0800417c <RCC_PLL_GetFreqDomain_SYS>:
 800417c:	4b0e      	ldr	r3, [pc, #56]	; (80041b8 <RCC_PLL_GetFreqDomain_SYS+0x3c>)
 800417e:	490f      	ldr	r1, [pc, #60]	; (80041bc <RCC_PLL_GetFreqDomain_SYS+0x40>)
 8004180:	685a      	ldr	r2, [r3, #4]
 8004182:	f412 0f80 	tst.w	r2, #4194304	; 0x400000
 8004186:	4a0e      	ldr	r2, [pc, #56]	; (80041c0 <RCC_PLL_GetFreqDomain_SYS+0x44>)
 8004188:	bf18      	it	ne
 800418a:	460a      	movne	r2, r1
 800418c:	2808      	cmp	r0, #8
 800418e:	d110      	bne.n	80041b2 <RCC_PLL_GetFreqDomain_SYS+0x36>
 8004190:	6859      	ldr	r1, [r3, #4]
 8004192:	6858      	ldr	r0, [r3, #4]
 8004194:	685b      	ldr	r3, [r3, #4]
 8004196:	f3c3 4301 	ubfx	r3, r3, #16, #2
 800419a:	f3c0 1088 	ubfx	r0, r0, #6, #9
 800419e:	3301      	adds	r3, #1
 80041a0:	f001 013f 	and.w	r1, r1, #63	; 0x3f
 80041a4:	005b      	lsls	r3, r3, #1
 80041a6:	fbb2 f2f1 	udiv	r2, r2, r1
 80041aa:	4350      	muls	r0, r2
 80041ac:	fbb0 f0f3 	udiv	r0, r0, r3
 80041b0:	4770      	bx	lr
 80041b2:	2000      	movs	r0, #0
 80041b4:	4770      	bx	lr
 80041b6:	bf00      	nop
 80041b8:	40023800 	.word	0x40023800
 80041bc:	017d7840 	.word	0x017d7840
 80041c0:	00f42400 	.word	0x00f42400

080041c4 <RCC_GetSystemClockFreq>:
 80041c4:	4b06      	ldr	r3, [pc, #24]	; (80041e0 <RCC_GetSystemClockFreq+0x1c>)
 80041c6:	6898      	ldr	r0, [r3, #8]
 80041c8:	f000 000c 	and.w	r0, r0, #12
 80041cc:	2804      	cmp	r0, #4
 80041ce:	d003      	beq.n	80041d8 <RCC_GetSystemClockFreq+0x14>
 80041d0:	2808      	cmp	r0, #8
 80041d2:	d103      	bne.n	80041dc <RCC_GetSystemClockFreq+0x18>
 80041d4:	f7ff bfd2 	b.w	800417c <RCC_PLL_GetFreqDomain_SYS>
 80041d8:	4802      	ldr	r0, [pc, #8]	; (80041e4 <RCC_GetSystemClockFreq+0x20>)
 80041da:	4770      	bx	lr
 80041dc:	4802      	ldr	r0, [pc, #8]	; (80041e8 <RCC_GetSystemClockFreq+0x24>)
 80041de:	4770      	bx	lr
 80041e0:	40023800 	.word	0x40023800
 80041e4:	017d7840 	.word	0x017d7840
 80041e8:	00f42400 	.word	0x00f42400

080041ec <LL_RCC_GetSystemClocksFreq>:
 80041ec:	b510      	push	{r4, lr}
 80041ee:	4604      	mov	r4, r0
 80041f0:	f7ff ffe8 	bl	80041c4 <RCC_GetSystemClockFreq>
 80041f4:	6020      	str	r0, [r4, #0]
 80041f6:	f7ff ff9d 	bl	8004134 <RCC_GetHCLKClockFreq>
 80041fa:	6060      	str	r0, [r4, #4]
 80041fc:	f7ff ffa6 	bl	800414c <RCC_GetPCLK1ClockFreq>
 8004200:	60a0      	str	r0, [r4, #8]
 8004202:	6860      	ldr	r0, [r4, #4]
 8004204:	f7ff ffae 	bl	8004164 <RCC_GetPCLK2ClockFreq>
 8004208:	60e0      	str	r0, [r4, #12]
 800420a:	bd10      	pop	{r4, pc}

0800420c <LL_USART_Init>:
 800420c:	b530      	push	{r4, r5, lr}
 800420e:	68c3      	ldr	r3, [r0, #12]
 8004210:	049b      	lsls	r3, r3, #18
 8004212:	b085      	sub	sp, #20
 8004214:	4604      	mov	r4, r0
 8004216:	460d      	mov	r5, r1
 8004218:	d502      	bpl.n	8004220 <LL_USART_Init+0x14>
 800421a:	2001      	movs	r0, #1
 800421c:	b005      	add	sp, #20
 800421e:	bd30      	pop	{r4, r5, pc}
 8004220:	684b      	ldr	r3, [r1, #4]
 8004222:	68c9      	ldr	r1, [r1, #12]
 8004224:	68c2      	ldr	r2, [r0, #12]
 8004226:	430b      	orrs	r3, r1
 8004228:	6929      	ldr	r1, [r5, #16]
 800422a:	430b      	orrs	r3, r1
 800422c:	69a9      	ldr	r1, [r5, #24]
 800422e:	f422 4216 	bic.w	r2, r2, #38400	; 0x9600
 8004232:	430b      	orrs	r3, r1
 8004234:	f022 020c 	bic.w	r2, r2, #12
 8004238:	4313      	orrs	r3, r2
 800423a:	60c3      	str	r3, [r0, #12]
 800423c:	6903      	ldr	r3, [r0, #16]
 800423e:	68aa      	ldr	r2, [r5, #8]
 8004240:	f423 5340 	bic.w	r3, r3, #12288	; 0x3000
 8004244:	4313      	orrs	r3, r2
 8004246:	6103      	str	r3, [r0, #16]
 8004248:	6943      	ldr	r3, [r0, #20]
 800424a:	696a      	ldr	r2, [r5, #20]
 800424c:	f423 7340 	bic.w	r3, r3, #768	; 0x300
 8004250:	4313      	orrs	r3, r2
 8004252:	6143      	str	r3, [r0, #20]
 8004254:	4668      	mov	r0, sp
 8004256:	f7ff ffc9 	bl	80041ec <LL_RCC_GetSystemClocksFreq>
 800425a:	4b22      	ldr	r3, [pc, #136]	; (80042e4 <LL_USART_Init+0xd8>)
 800425c:	429c      	cmp	r4, r3
 800425e:	d128      	bne.n	80042b2 <LL_USART_Init+0xa6>
 8004260:	9803      	ldr	r0, [sp, #12]
 8004262:	2800      	cmp	r0, #0
 8004264:	d0d9      	beq.n	800421a <LL_USART_Init+0xe>
 8004266:	682b      	ldr	r3, [r5, #0]
 8004268:	2b00      	cmp	r3, #0
 800426a:	d0d6      	beq.n	800421a <LL_USART_Init+0xe>
 800426c:	2219      	movs	r2, #25
 800426e:	fba0 0102 	umull	r0, r1, r0, r2
 8004272:	69aa      	ldr	r2, [r5, #24]
 8004274:	f5b2 4f00 	cmp.w	r2, #32768	; 0x8000
 8004278:	d124      	bne.n	80042c4 <LL_USART_Init+0xb8>
 800427a:	461a      	mov	r2, r3
 800427c:	1892      	adds	r2, r2, r2
 800427e:	f04f 0300 	mov.w	r3, #0
 8004282:	415b      	adcs	r3, r3
 8004284:	f7fc fc90 	bl	8000ba8 <__aeabi_uldivmod>
 8004288:	2164      	movs	r1, #100	; 0x64
 800428a:	fbb0 f5f1 	udiv	r5, r0, r1
 800428e:	fb01 0315 	mls	r3, r1, r5, r0
 8004292:	00db      	lsls	r3, r3, #3
 8004294:	3332      	adds	r3, #50	; 0x32
 8004296:	fbb3 f3f1 	udiv	r3, r3, r1
 800429a:	f003 0207 	and.w	r2, r3, #7
 800429e:	005b      	lsls	r3, r3, #1
 80042a0:	eb02 1205 	add.w	r2, r2, r5, lsl #4
 80042a4:	f403 73f8 	and.w	r3, r3, #496	; 0x1f0
 80042a8:	4413      	add	r3, r2
 80042aa:	b29b      	uxth	r3, r3
 80042ac:	60a3      	str	r3, [r4, #8]
 80042ae:	2000      	movs	r0, #0
 80042b0:	e7b4      	b.n	800421c <LL_USART_Init+0x10>
 80042b2:	4b0d      	ldr	r3, [pc, #52]	; (80042e8 <LL_USART_Init+0xdc>)
 80042b4:	429c      	cmp	r4, r3
 80042b6:	d101      	bne.n	80042bc <LL_USART_Init+0xb0>
 80042b8:	9802      	ldr	r0, [sp, #8]
 80042ba:	e7d2      	b.n	8004262 <LL_USART_Init+0x56>
 80042bc:	4b0b      	ldr	r3, [pc, #44]	; (80042ec <LL_USART_Init+0xe0>)
 80042be:	429c      	cmp	r4, r3
 80042c0:	d1ab      	bne.n	800421a <LL_USART_Init+0xe>
 80042c2:	e7cd      	b.n	8004260 <LL_USART_Init+0x54>
 80042c4:	009a      	lsls	r2, r3, #2
 80042c6:	0f9b      	lsrs	r3, r3, #30
 80042c8:	f7fc fc6e 	bl	8000ba8 <__aeabi_uldivmod>
 80042cc:	2264      	movs	r2, #100	; 0x64
 80042ce:	fbb0 f1f2 	udiv	r1, r0, r2
 80042d2:	fb02 0311 	mls	r3, r2, r1, r0
 80042d6:	011b      	lsls	r3, r3, #4
 80042d8:	3332      	adds	r3, #50	; 0x32
 80042da:	fbb3 f3f2 	udiv	r3, r3, r2
 80042de:	eb03 1301 	add.w	r3, r3, r1, lsl #4
 80042e2:	e7e2      	b.n	80042aa <LL_USART_Init+0x9e>
 80042e4:	40011000 	.word	0x40011000
 80042e8:	40004400 	.word	0x40004400
 80042ec:	40011400 	.word	0x40011400

080042f0 <_ZdlPvj>:
 80042f0:	f000 b823 	b.w	800433a <_ZdlPv>

080042f4 <__cxa_guard_acquire>:
 80042f4:	6803      	ldr	r3, [r0, #0]
 80042f6:	07db      	lsls	r3, r3, #31
 80042f8:	d406      	bmi.n	8004308 <__cxa_guard_acquire+0x14>
 80042fa:	7843      	ldrb	r3, [r0, #1]
 80042fc:	b103      	cbz	r3, 8004300 <__cxa_guard_acquire+0xc>
 80042fe:	deff      	udf	#255	; 0xff
 8004300:	2301      	movs	r3, #1
 8004302:	7043      	strb	r3, [r0, #1]
 8004304:	4618      	mov	r0, r3
 8004306:	4770      	bx	lr
 8004308:	2000      	movs	r0, #0
 800430a:	4770      	bx	lr

0800430c <__cxa_guard_release>:
 800430c:	2301      	movs	r3, #1
 800430e:	6003      	str	r3, [r0, #0]
 8004310:	4770      	bx	lr

08004312 <_Znwj>:
 8004312:	2801      	cmp	r0, #1
 8004314:	bf38      	it	cc
 8004316:	2001      	movcc	r0, #1
 8004318:	b510      	push	{r4, lr}
 800431a:	4604      	mov	r4, r0
 800431c:	4620      	mov	r0, r4
 800431e:	f001 f815 	bl	800534c <malloc>
 8004322:	b930      	cbnz	r0, 8004332 <_Znwj+0x20>
 8004324:	f000 f81e 	bl	8004364 <_ZSt15get_new_handlerv>
 8004328:	b908      	cbnz	r0, 800432e <_Znwj+0x1c>
 800432a:	f000 ffd7 	bl	80052dc <abort>
 800432e:	4780      	blx	r0
 8004330:	e7f4      	b.n	800431c <_Znwj+0xa>
 8004332:	bd10      	pop	{r4, pc}

08004334 <__cxa_pure_virtual>:
 8004334:	b508      	push	{r3, lr}
 8004336:	f000 f80f 	bl	8004358 <_ZSt9terminatev>

0800433a <_ZdlPv>:
 800433a:	f001 b80f 	b.w	800535c <free>

0800433e <_ZN10__cxxabiv111__terminateEPFvvE>:
 800433e:	b508      	push	{r3, lr}
 8004340:	4780      	blx	r0
 8004342:	f000 ffcb 	bl	80052dc <abort>
	...

08004348 <_ZSt13get_terminatev>:
 8004348:	4b02      	ldr	r3, [pc, #8]	; (8004354 <_ZSt13get_terminatev+0xc>)
 800434a:	6818      	ldr	r0, [r3, #0]
 800434c:	f3bf 8f5b 	dmb	ish
 8004350:	4770      	bx	lr
 8004352:	bf00      	nop
 8004354:	2000000c 	.word	0x2000000c

08004358 <_ZSt9terminatev>:
 8004358:	b508      	push	{r3, lr}
 800435a:	f7ff fff5 	bl	8004348 <_ZSt13get_terminatev>
 800435e:	f7ff ffee 	bl	800433e <_ZN10__cxxabiv111__terminateEPFvvE>
	...

08004364 <_ZSt15get_new_handlerv>:
 8004364:	4b02      	ldr	r3, [pc, #8]	; (8004370 <_ZSt15get_new_handlerv+0xc>)
 8004366:	6818      	ldr	r0, [r3, #0]
 8004368:	f3bf 8f5b 	dmb	ish
 800436c:	4770      	bx	lr
 800436e:	bf00      	nop
 8004370:	20002bbc 	.word	0x20002bbc

08004374 <pow>:
 8004374:	e92d 43f8 	stmdb	sp!, {r3, r4, r5, r6, r7, r8, r9, lr}
 8004378:	ec59 8b10 	vmov	r8, r9, d0
 800437c:	ec57 6b11 	vmov	r6, r7, d1
 8004380:	f000 f8a6 	bl	80044d0 <__ieee754_pow>
 8004384:	4b4e      	ldr	r3, [pc, #312]	; (80044c0 <pow+0x14c>)
 8004386:	f993 3000 	ldrsb.w	r3, [r3]
 800438a:	3301      	adds	r3, #1
 800438c:	ec55 4b10 	vmov	r4, r5, d0
 8004390:	d015      	beq.n	80043be <pow+0x4a>
 8004392:	4632      	mov	r2, r6
 8004394:	463b      	mov	r3, r7
 8004396:	4630      	mov	r0, r6
 8004398:	4639      	mov	r1, r7
 800439a:	f7fc fbcf 	bl	8000b3c <__aeabi_dcmpun>
 800439e:	b970      	cbnz	r0, 80043be <pow+0x4a>
 80043a0:	4642      	mov	r2, r8
 80043a2:	464b      	mov	r3, r9
 80043a4:	4640      	mov	r0, r8
 80043a6:	4649      	mov	r1, r9
 80043a8:	f7fc fbc8 	bl	8000b3c <__aeabi_dcmpun>
 80043ac:	2200      	movs	r2, #0
 80043ae:	2300      	movs	r3, #0
 80043b0:	b148      	cbz	r0, 80043c6 <pow+0x52>
 80043b2:	4630      	mov	r0, r6
 80043b4:	4639      	mov	r1, r7
 80043b6:	f7fc fb8f 	bl	8000ad8 <__aeabi_dcmpeq>
 80043ba:	2800      	cmp	r0, #0
 80043bc:	d17d      	bne.n	80044ba <pow+0x146>
 80043be:	ec45 4b10 	vmov	d0, r4, r5
 80043c2:	e8bd 83f8 	ldmia.w	sp!, {r3, r4, r5, r6, r7, r8, r9, pc}
 80043c6:	4640      	mov	r0, r8
 80043c8:	4649      	mov	r1, r9
 80043ca:	f7fc fb85 	bl	8000ad8 <__aeabi_dcmpeq>
 80043ce:	b1e0      	cbz	r0, 800440a <pow+0x96>
 80043d0:	2200      	movs	r2, #0
 80043d2:	2300      	movs	r3, #0
 80043d4:	4630      	mov	r0, r6
 80043d6:	4639      	mov	r1, r7
 80043d8:	f7fc fb7e 	bl	8000ad8 <__aeabi_dcmpeq>
 80043dc:	2800      	cmp	r0, #0
 80043de:	d16c      	bne.n	80044ba <pow+0x146>
 80043e0:	ec47 6b10 	vmov	d0, r6, r7
 80043e4:	f000 fe53 	bl	800508e <finite>
 80043e8:	2800      	cmp	r0, #0
 80043ea:	d0e8      	beq.n	80043be <pow+0x4a>
 80043ec:	2200      	movs	r2, #0
 80043ee:	2300      	movs	r3, #0
 80043f0:	4630      	mov	r0, r6
 80043f2:	4639      	mov	r1, r7
 80043f4:	f7fc fb7a 	bl	8000aec <__aeabi_dcmplt>
 80043f8:	2800      	cmp	r0, #0
 80043fa:	d0e0      	beq.n	80043be <pow+0x4a>
 80043fc:	f000 ff7c 	bl	80052f8 <__errno>
 8004400:	2321      	movs	r3, #33	; 0x21
 8004402:	6003      	str	r3, [r0, #0]
 8004404:	2400      	movs	r4, #0
 8004406:	4d2f      	ldr	r5, [pc, #188]	; (80044c4 <pow+0x150>)
 8004408:	e7d9      	b.n	80043be <pow+0x4a>
 800440a:	ec45 4b10 	vmov	d0, r4, r5
 800440e:	f000 fe3e 	bl	800508e <finite>
 8004412:	bbb8      	cbnz	r0, 8004484 <pow+0x110>
 8004414:	ec49 8b10 	vmov	d0, r8, r9
 8004418:	f000 fe39 	bl	800508e <finite>
 800441c:	b390      	cbz	r0, 8004484 <pow+0x110>
 800441e:	ec47 6b10 	vmov	d0, r6, r7
 8004422:	f000 fe34 	bl	800508e <finite>
 8004426:	b368      	cbz	r0, 8004484 <pow+0x110>
 8004428:	4622      	mov	r2, r4
 800442a:	462b      	mov	r3, r5
 800442c:	4620      	mov	r0, r4
 800442e:	4629      	mov	r1, r5
 8004430:	f7fc fb84 	bl	8000b3c <__aeabi_dcmpun>
 8004434:	b160      	cbz	r0, 8004450 <pow+0xdc>
 8004436:	f000 ff5f 	bl	80052f8 <__errno>
 800443a:	2321      	movs	r3, #33	; 0x21
 800443c:	6003      	str	r3, [r0, #0]
 800443e:	2200      	movs	r2, #0
 8004440:	2300      	movs	r3, #0
 8004442:	4610      	mov	r0, r2
 8004444:	4619      	mov	r1, r3
 8004446:	f7fc fa09 	bl	800085c <__aeabi_ddiv>
 800444a:	4604      	mov	r4, r0
 800444c:	460d      	mov	r5, r1
 800444e:	e7b6      	b.n	80043be <pow+0x4a>
 8004450:	f000 ff52 	bl	80052f8 <__errno>
 8004454:	2322      	movs	r3, #34	; 0x22
 8004456:	6003      	str	r3, [r0, #0]
 8004458:	2200      	movs	r2, #0
 800445a:	2300      	movs	r3, #0
 800445c:	4640      	mov	r0, r8
 800445e:	4649      	mov	r1, r9
 8004460:	f7fc fb44 	bl	8000aec <__aeabi_dcmplt>
 8004464:	2400      	movs	r4, #0
 8004466:	b158      	cbz	r0, 8004480 <pow+0x10c>
 8004468:	ec47 6b10 	vmov	d0, r6, r7
 800446c:	f000 fe24 	bl	80050b8 <rint>
 8004470:	4632      	mov	r2, r6
 8004472:	ec51 0b10 	vmov	r0, r1, d0
 8004476:	463b      	mov	r3, r7
 8004478:	f7fc fb2e 	bl	8000ad8 <__aeabi_dcmpeq>
 800447c:	2800      	cmp	r0, #0
 800447e:	d0c2      	beq.n	8004406 <pow+0x92>
 8004480:	4d11      	ldr	r5, [pc, #68]	; (80044c8 <pow+0x154>)
 8004482:	e79c      	b.n	80043be <pow+0x4a>
 8004484:	2200      	movs	r2, #0
 8004486:	2300      	movs	r3, #0
 8004488:	4620      	mov	r0, r4
 800448a:	4629      	mov	r1, r5
 800448c:	f7fc fb24 	bl	8000ad8 <__aeabi_dcmpeq>
 8004490:	2800      	cmp	r0, #0
 8004492:	d094      	beq.n	80043be <pow+0x4a>
 8004494:	ec49 8b10 	vmov	d0, r8, r9
 8004498:	f000 fdf9 	bl	800508e <finite>
 800449c:	2800      	cmp	r0, #0
 800449e:	d08e      	beq.n	80043be <pow+0x4a>
 80044a0:	ec47 6b10 	vmov	d0, r6, r7
 80044a4:	f000 fdf3 	bl	800508e <finite>
 80044a8:	2800      	cmp	r0, #0
 80044aa:	d088      	beq.n	80043be <pow+0x4a>
 80044ac:	f000 ff24 	bl	80052f8 <__errno>
 80044b0:	2322      	movs	r3, #34	; 0x22
 80044b2:	6003      	str	r3, [r0, #0]
 80044b4:	2400      	movs	r4, #0
 80044b6:	2500      	movs	r5, #0
 80044b8:	e781      	b.n	80043be <pow+0x4a>
 80044ba:	4d04      	ldr	r5, [pc, #16]	; (80044cc <pow+0x158>)
 80044bc:	2400      	movs	r4, #0
 80044be:	e77e      	b.n	80043be <pow+0x4a>
 80044c0:	20000010 	.word	0x20000010
 80044c4:	fff00000 	.word	0xfff00000
 80044c8:	7ff00000 	.word	0x7ff00000
 80044cc:	3ff00000 	.word	0x3ff00000

080044d0 <__ieee754_pow>:
 80044d0:	e92d 4ff0 	stmdb	sp!, {r4, r5, r6, r7, r8, r9, sl, fp, lr}
 80044d4:	ed2d 8b06 	vpush	{d8-d10}
 80044d8:	b08d      	sub	sp, #52	; 0x34
 80044da:	ed8d 1b02 	vstr	d1, [sp, #8]
 80044de:	e9dd 0702 	ldrd	r0, r7, [sp, #8]
 80044e2:	f027 4600 	bic.w	r6, r7, #2147483648	; 0x80000000
 80044e6:	ea56 0100 	orrs.w	r1, r6, r0
 80044ea:	ec53 2b10 	vmov	r2, r3, d0
 80044ee:	f000 84d1 	beq.w	8004e94 <__ieee754_pow+0x9c4>
 80044f2:	497f      	ldr	r1, [pc, #508]	; (80046f0 <__ieee754_pow+0x220>)
 80044f4:	f023 4400 	bic.w	r4, r3, #2147483648	; 0x80000000
 80044f8:	428c      	cmp	r4, r1
 80044fa:	ee10 8a10 	vmov	r8, s0
 80044fe:	4699      	mov	r9, r3
 8004500:	dc09      	bgt.n	8004516 <__ieee754_pow+0x46>
 8004502:	d103      	bne.n	800450c <__ieee754_pow+0x3c>
 8004504:	b97a      	cbnz	r2, 8004526 <__ieee754_pow+0x56>
 8004506:	42a6      	cmp	r6, r4
 8004508:	dd02      	ble.n	8004510 <__ieee754_pow+0x40>
 800450a:	e00c      	b.n	8004526 <__ieee754_pow+0x56>
 800450c:	428e      	cmp	r6, r1
 800450e:	dc02      	bgt.n	8004516 <__ieee754_pow+0x46>
 8004510:	428e      	cmp	r6, r1
 8004512:	d110      	bne.n	8004536 <__ieee754_pow+0x66>
 8004514:	b178      	cbz	r0, 8004536 <__ieee754_pow+0x66>
 8004516:	f104 4440 	add.w	r4, r4, #3221225472	; 0xc0000000
 800451a:	f504 1480 	add.w	r4, r4, #1048576	; 0x100000
 800451e:	ea54 0308 	orrs.w	r3, r4, r8
 8004522:	f000 84b7 	beq.w	8004e94 <__ieee754_pow+0x9c4>
 8004526:	4873      	ldr	r0, [pc, #460]	; (80046f4 <__ieee754_pow+0x224>)
 8004528:	b00d      	add	sp, #52	; 0x34
 800452a:	ecbd 8b06 	vpop	{d8-d10}
 800452e:	e8bd 4ff0 	ldmia.w	sp!, {r4, r5, r6, r7, r8, r9, sl, fp, lr}
 8004532:	f000 bdb9 	b.w	80050a8 <nan>
 8004536:	f1b9 0f00 	cmp.w	r9, #0
 800453a:	da36      	bge.n	80045aa <__ieee754_pow+0xda>
 800453c:	496e      	ldr	r1, [pc, #440]	; (80046f8 <__ieee754_pow+0x228>)
 800453e:	428e      	cmp	r6, r1
 8004540:	dc51      	bgt.n	80045e6 <__ieee754_pow+0x116>
 8004542:	f1a1 7154 	sub.w	r1, r1, #55574528	; 0x3500000
 8004546:	428e      	cmp	r6, r1
 8004548:	f340 84af 	ble.w	8004eaa <__ieee754_pow+0x9da>
 800454c:	1531      	asrs	r1, r6, #20
 800454e:	f2a1 31ff 	subw	r1, r1, #1023	; 0x3ff
 8004552:	2914      	cmp	r1, #20
 8004554:	dd0f      	ble.n	8004576 <__ieee754_pow+0xa6>
 8004556:	f1c1 0134 	rsb	r1, r1, #52	; 0x34
 800455a:	fa20 fc01 	lsr.w	ip, r0, r1
 800455e:	fa0c f101 	lsl.w	r1, ip, r1
 8004562:	4281      	cmp	r1, r0
 8004564:	f040 84a1 	bne.w	8004eaa <__ieee754_pow+0x9da>
 8004568:	f00c 0c01 	and.w	ip, ip, #1
 800456c:	f1cc 0102 	rsb	r1, ip, #2
 8004570:	9100      	str	r1, [sp, #0]
 8004572:	b180      	cbz	r0, 8004596 <__ieee754_pow+0xc6>
 8004574:	e059      	b.n	800462a <__ieee754_pow+0x15a>
 8004576:	2800      	cmp	r0, #0
 8004578:	d155      	bne.n	8004626 <__ieee754_pow+0x156>
 800457a:	f1c1 0114 	rsb	r1, r1, #20
 800457e:	fa46 fc01 	asr.w	ip, r6, r1
 8004582:	fa0c f101 	lsl.w	r1, ip, r1
 8004586:	42b1      	cmp	r1, r6
 8004588:	f040 848c 	bne.w	8004ea4 <__ieee754_pow+0x9d4>
 800458c:	f00c 0c01 	and.w	ip, ip, #1
 8004590:	f1cc 0102 	rsb	r1, ip, #2
 8004594:	9100      	str	r1, [sp, #0]
 8004596:	4959      	ldr	r1, [pc, #356]	; (80046fc <__ieee754_pow+0x22c>)
 8004598:	428e      	cmp	r6, r1
 800459a:	d12d      	bne.n	80045f8 <__ieee754_pow+0x128>
 800459c:	2f00      	cmp	r7, #0
 800459e:	da79      	bge.n	8004694 <__ieee754_pow+0x1c4>
 80045a0:	4956      	ldr	r1, [pc, #344]	; (80046fc <__ieee754_pow+0x22c>)
 80045a2:	2000      	movs	r0, #0
 80045a4:	f7fc f95a 	bl	800085c <__aeabi_ddiv>
 80045a8:	e016      	b.n	80045d8 <__ieee754_pow+0x108>
 80045aa:	2100      	movs	r1, #0
 80045ac:	9100      	str	r1, [sp, #0]
 80045ae:	2800      	cmp	r0, #0
 80045b0:	d13b      	bne.n	800462a <__ieee754_pow+0x15a>
 80045b2:	494f      	ldr	r1, [pc, #316]	; (80046f0 <__ieee754_pow+0x220>)
 80045b4:	428e      	cmp	r6, r1
 80045b6:	d1ee      	bne.n	8004596 <__ieee754_pow+0xc6>
 80045b8:	f104 4340 	add.w	r3, r4, #3221225472	; 0xc0000000
 80045bc:	f503 1380 	add.w	r3, r3, #1048576	; 0x100000
 80045c0:	ea53 0308 	orrs.w	r3, r3, r8
 80045c4:	f000 8466 	beq.w	8004e94 <__ieee754_pow+0x9c4>
 80045c8:	4b4d      	ldr	r3, [pc, #308]	; (8004700 <__ieee754_pow+0x230>)
 80045ca:	429c      	cmp	r4, r3
 80045cc:	dd0d      	ble.n	80045ea <__ieee754_pow+0x11a>
 80045ce:	2f00      	cmp	r7, #0
 80045d0:	f280 8464 	bge.w	8004e9c <__ieee754_pow+0x9cc>
 80045d4:	2000      	movs	r0, #0
 80045d6:	2100      	movs	r1, #0
 80045d8:	ec41 0b10 	vmov	d0, r0, r1
 80045dc:	b00d      	add	sp, #52	; 0x34
 80045de:	ecbd 8b06 	vpop	{d8-d10}
 80045e2:	e8bd 8ff0 	ldmia.w	sp!, {r4, r5, r6, r7, r8, r9, sl, fp, pc}
 80045e6:	2102      	movs	r1, #2
 80045e8:	e7e0      	b.n	80045ac <__ieee754_pow+0xdc>
 80045ea:	2f00      	cmp	r7, #0
 80045ec:	daf2      	bge.n	80045d4 <__ieee754_pow+0x104>
 80045ee:	e9dd 0302 	ldrd	r0, r3, [sp, #8]
 80045f2:	f103 4100 	add.w	r1, r3, #2147483648	; 0x80000000
 80045f6:	e7ef      	b.n	80045d8 <__ieee754_pow+0x108>
 80045f8:	f1b7 4f80 	cmp.w	r7, #1073741824	; 0x40000000
 80045fc:	d104      	bne.n	8004608 <__ieee754_pow+0x138>
 80045fe:	4610      	mov	r0, r2
 8004600:	4619      	mov	r1, r3
 8004602:	f7fc f801 	bl	8000608 <__aeabi_dmul>
 8004606:	e7e7      	b.n	80045d8 <__ieee754_pow+0x108>
 8004608:	493e      	ldr	r1, [pc, #248]	; (8004704 <__ieee754_pow+0x234>)
 800460a:	428f      	cmp	r7, r1
 800460c:	d10d      	bne.n	800462a <__ieee754_pow+0x15a>
 800460e:	f1b9 0f00 	cmp.w	r9, #0
 8004612:	db0a      	blt.n	800462a <__ieee754_pow+0x15a>
 8004614:	ec43 2b10 	vmov	d0, r2, r3
 8004618:	b00d      	add	sp, #52	; 0x34
 800461a:	ecbd 8b06 	vpop	{d8-d10}
 800461e:	e8bd 4ff0 	ldmia.w	sp!, {r4, r5, r6, r7, r8, r9, sl, fp, lr}
 8004622:	f000 bc77 	b.w	8004f14 <__ieee754_sqrt>
 8004626:	2100      	movs	r1, #0
 8004628:	9100      	str	r1, [sp, #0]
 800462a:	ec43 2b10 	vmov	d0, r2, r3
 800462e:	e9cd 2304 	strd	r2, r3, [sp, #16]
 8004632:	f000 fd23 	bl	800507c <fabs>
 8004636:	e9dd 2304 	ldrd	r2, r3, [sp, #16]
 800463a:	ec51 0b10 	vmov	r0, r1, d0
 800463e:	f1b8 0f00 	cmp.w	r8, #0
 8004642:	d12a      	bne.n	800469a <__ieee754_pow+0x1ca>
 8004644:	b12c      	cbz	r4, 8004652 <__ieee754_pow+0x182>
 8004646:	f8df c0b4 	ldr.w	ip, [pc, #180]	; 80046fc <__ieee754_pow+0x22c>
 800464a:	f029 4e40 	bic.w	lr, r9, #3221225472	; 0xc0000000
 800464e:	45e6      	cmp	lr, ip
 8004650:	d123      	bne.n	800469a <__ieee754_pow+0x1ca>
 8004652:	2f00      	cmp	r7, #0
 8004654:	da05      	bge.n	8004662 <__ieee754_pow+0x192>
 8004656:	4602      	mov	r2, r0
 8004658:	460b      	mov	r3, r1
 800465a:	2000      	movs	r0, #0
 800465c:	4927      	ldr	r1, [pc, #156]	; (80046fc <__ieee754_pow+0x22c>)
 800465e:	f7fc f8fd 	bl	800085c <__aeabi_ddiv>
 8004662:	f1b9 0f00 	cmp.w	r9, #0
 8004666:	dab7      	bge.n	80045d8 <__ieee754_pow+0x108>
 8004668:	9b00      	ldr	r3, [sp, #0]
 800466a:	f104 4440 	add.w	r4, r4, #3221225472	; 0xc0000000
 800466e:	f504 1480 	add.w	r4, r4, #1048576	; 0x100000
 8004672:	4323      	orrs	r3, r4
 8004674:	d108      	bne.n	8004688 <__ieee754_pow+0x1b8>
 8004676:	4602      	mov	r2, r0
 8004678:	460b      	mov	r3, r1
 800467a:	4610      	mov	r0, r2
 800467c:	4619      	mov	r1, r3
 800467e:	f7fb fe0b 	bl	8000298 <__aeabi_dsub>
 8004682:	4602      	mov	r2, r0
 8004684:	460b      	mov	r3, r1
 8004686:	e78d      	b.n	80045a4 <__ieee754_pow+0xd4>
 8004688:	9b00      	ldr	r3, [sp, #0]
 800468a:	2b01      	cmp	r3, #1
 800468c:	d1a4      	bne.n	80045d8 <__ieee754_pow+0x108>
 800468e:	4602      	mov	r2, r0
 8004690:	f101 4300 	add.w	r3, r1, #2147483648	; 0x80000000
 8004694:	4610      	mov	r0, r2
 8004696:	4619      	mov	r1, r3
 8004698:	e79e      	b.n	80045d8 <__ieee754_pow+0x108>
 800469a:	ea4f 7cd9 	mov.w	ip, r9, lsr #31
 800469e:	f10c 35ff 	add.w	r5, ip, #4294967295
 80046a2:	950a      	str	r5, [sp, #40]	; 0x28
 80046a4:	9d00      	ldr	r5, [sp, #0]
 80046a6:	46ac      	mov	ip, r5
 80046a8:	9d0a      	ldr	r5, [sp, #40]	; 0x28
 80046aa:	ea5c 0505 	orrs.w	r5, ip, r5
 80046ae:	d0e4      	beq.n	800467a <__ieee754_pow+0x1aa>
 80046b0:	4b15      	ldr	r3, [pc, #84]	; (8004708 <__ieee754_pow+0x238>)
 80046b2:	429e      	cmp	r6, r3
 80046b4:	f340 80fc 	ble.w	80048b0 <__ieee754_pow+0x3e0>
 80046b8:	f103 7304 	add.w	r3, r3, #34603008	; 0x2100000
 80046bc:	429e      	cmp	r6, r3
 80046be:	4b10      	ldr	r3, [pc, #64]	; (8004700 <__ieee754_pow+0x230>)
 80046c0:	dd07      	ble.n	80046d2 <__ieee754_pow+0x202>
 80046c2:	429c      	cmp	r4, r3
 80046c4:	dc0a      	bgt.n	80046dc <__ieee754_pow+0x20c>
 80046c6:	2f00      	cmp	r7, #0
 80046c8:	da84      	bge.n	80045d4 <__ieee754_pow+0x104>
 80046ca:	a307      	add	r3, pc, #28	; (adr r3, 80046e8 <__ieee754_pow+0x218>)
 80046cc:	e9d3 2300 	ldrd	r2, r3, [r3]
 80046d0:	e795      	b.n	80045fe <__ieee754_pow+0x12e>
 80046d2:	429c      	cmp	r4, r3
 80046d4:	dbf7      	blt.n	80046c6 <__ieee754_pow+0x1f6>
 80046d6:	4b09      	ldr	r3, [pc, #36]	; (80046fc <__ieee754_pow+0x22c>)
 80046d8:	429c      	cmp	r4, r3
 80046da:	dd17      	ble.n	800470c <__ieee754_pow+0x23c>
 80046dc:	2f00      	cmp	r7, #0
 80046de:	dcf4      	bgt.n	80046ca <__ieee754_pow+0x1fa>
 80046e0:	e778      	b.n	80045d4 <__ieee754_pow+0x104>
 80046e2:	bf00      	nop
 80046e4:	f3af 8000 	nop.w
 80046e8:	8800759c 	.word	0x8800759c
 80046ec:	7e37e43c 	.word	0x7e37e43c
 80046f0:	7ff00000 	.word	0x7ff00000
 80046f4:	08005e35 	.word	0x08005e35
 80046f8:	433fffff 	.word	0x433fffff
 80046fc:	3ff00000 	.word	0x3ff00000
 8004700:	3fefffff 	.word	0x3fefffff
 8004704:	3fe00000 	.word	0x3fe00000
 8004708:	41e00000 	.word	0x41e00000
 800470c:	4b64      	ldr	r3, [pc, #400]	; (80048a0 <__ieee754_pow+0x3d0>)
 800470e:	2200      	movs	r2, #0
 8004710:	f7fb fdc2 	bl	8000298 <__aeabi_dsub>
 8004714:	a356      	add	r3, pc, #344	; (adr r3, 8004870 <__ieee754_pow+0x3a0>)
 8004716:	e9d3 2300 	ldrd	r2, r3, [r3]
 800471a:	4604      	mov	r4, r0
 800471c:	460d      	mov	r5, r1
 800471e:	f7fb ff73 	bl	8000608 <__aeabi_dmul>
 8004722:	a355      	add	r3, pc, #340	; (adr r3, 8004878 <__ieee754_pow+0x3a8>)
 8004724:	e9d3 2300 	ldrd	r2, r3, [r3]
 8004728:	4606      	mov	r6, r0
 800472a:	460f      	mov	r7, r1
 800472c:	4620      	mov	r0, r4
 800472e:	4629      	mov	r1, r5
 8004730:	f7fb ff6a 	bl	8000608 <__aeabi_dmul>
 8004734:	4b5b      	ldr	r3, [pc, #364]	; (80048a4 <__ieee754_pow+0x3d4>)
 8004736:	4682      	mov	sl, r0
 8004738:	468b      	mov	fp, r1
 800473a:	2200      	movs	r2, #0
 800473c:	4620      	mov	r0, r4
 800473e:	4629      	mov	r1, r5
 8004740:	f7fb ff62 	bl	8000608 <__aeabi_dmul>
 8004744:	4602      	mov	r2, r0
 8004746:	460b      	mov	r3, r1
 8004748:	a14d      	add	r1, pc, #308	; (adr r1, 8004880 <__ieee754_pow+0x3b0>)
 800474a:	e9d1 0100 	ldrd	r0, r1, [r1]
 800474e:	f7fb fda3 	bl	8000298 <__aeabi_dsub>
 8004752:	4622      	mov	r2, r4
 8004754:	462b      	mov	r3, r5
 8004756:	f7fb ff57 	bl	8000608 <__aeabi_dmul>
 800475a:	4602      	mov	r2, r0
 800475c:	460b      	mov	r3, r1
 800475e:	2000      	movs	r0, #0
 8004760:	4951      	ldr	r1, [pc, #324]	; (80048a8 <__ieee754_pow+0x3d8>)
 8004762:	f7fb fd99 	bl	8000298 <__aeabi_dsub>
 8004766:	4622      	mov	r2, r4
 8004768:	4680      	mov	r8, r0
 800476a:	4689      	mov	r9, r1
 800476c:	462b      	mov	r3, r5
 800476e:	4620      	mov	r0, r4
 8004770:	4629      	mov	r1, r5
 8004772:	f7fb ff49 	bl	8000608 <__aeabi_dmul>
 8004776:	4602      	mov	r2, r0
 8004778:	460b      	mov	r3, r1
 800477a:	4640      	mov	r0, r8
 800477c:	4649      	mov	r1, r9
 800477e:	f7fb ff43 	bl	8000608 <__aeabi_dmul>
 8004782:	a341      	add	r3, pc, #260	; (adr r3, 8004888 <__ieee754_pow+0x3b8>)
 8004784:	e9d3 2300 	ldrd	r2, r3, [r3]
 8004788:	f7fb ff3e 	bl	8000608 <__aeabi_dmul>
 800478c:	4602      	mov	r2, r0
 800478e:	460b      	mov	r3, r1
 8004790:	4650      	mov	r0, sl
 8004792:	4659      	mov	r1, fp
 8004794:	f7fb fd80 	bl	8000298 <__aeabi_dsub>
 8004798:	4602      	mov	r2, r0
 800479a:	460b      	mov	r3, r1
 800479c:	4680      	mov	r8, r0
 800479e:	4689      	mov	r9, r1
 80047a0:	4630      	mov	r0, r6
 80047a2:	4639      	mov	r1, r7
 80047a4:	f7fb fd7a 	bl	800029c <__adddf3>
 80047a8:	2400      	movs	r4, #0
 80047aa:	4632      	mov	r2, r6
 80047ac:	463b      	mov	r3, r7
 80047ae:	4620      	mov	r0, r4
 80047b0:	460d      	mov	r5, r1
 80047b2:	f7fb fd71 	bl	8000298 <__aeabi_dsub>
 80047b6:	4602      	mov	r2, r0
 80047b8:	460b      	mov	r3, r1
 80047ba:	4640      	mov	r0, r8
 80047bc:	4649      	mov	r1, r9
 80047be:	f7fb fd6b 	bl	8000298 <__aeabi_dsub>
 80047c2:	9b00      	ldr	r3, [sp, #0]
 80047c4:	9a0a      	ldr	r2, [sp, #40]	; 0x28
 80047c6:	3b01      	subs	r3, #1
 80047c8:	4313      	orrs	r3, r2
 80047ca:	4682      	mov	sl, r0
 80047cc:	468b      	mov	fp, r1
 80047ce:	f040 81f1 	bne.w	8004bb4 <__ieee754_pow+0x6e4>
 80047d2:	ed9f 7b2f 	vldr	d7, [pc, #188]	; 8004890 <__ieee754_pow+0x3c0>
 80047d6:	eeb0 8a47 	vmov.f32	s16, s14
 80047da:	eef0 8a67 	vmov.f32	s17, s15
 80047de:	e9dd 6702 	ldrd	r6, r7, [sp, #8]
 80047e2:	2600      	movs	r6, #0
 80047e4:	4632      	mov	r2, r6
 80047e6:	463b      	mov	r3, r7
 80047e8:	e9dd 0102 	ldrd	r0, r1, [sp, #8]
 80047ec:	f7fb fd54 	bl	8000298 <__aeabi_dsub>
 80047f0:	4622      	mov	r2, r4
 80047f2:	462b      	mov	r3, r5
 80047f4:	f7fb ff08 	bl	8000608 <__aeabi_dmul>
 80047f8:	e9dd 2302 	ldrd	r2, r3, [sp, #8]
 80047fc:	4680      	mov	r8, r0
 80047fe:	4689      	mov	r9, r1
 8004800:	4650      	mov	r0, sl
 8004802:	4659      	mov	r1, fp
 8004804:	f7fb ff00 	bl	8000608 <__aeabi_dmul>
 8004808:	4602      	mov	r2, r0
 800480a:	460b      	mov	r3, r1
 800480c:	4640      	mov	r0, r8
 800480e:	4649      	mov	r1, r9
 8004810:	f7fb fd44 	bl	800029c <__adddf3>
 8004814:	4632      	mov	r2, r6
 8004816:	463b      	mov	r3, r7
 8004818:	4680      	mov	r8, r0
 800481a:	4689      	mov	r9, r1
 800481c:	4620      	mov	r0, r4
 800481e:	4629      	mov	r1, r5
 8004820:	f7fb fef2 	bl	8000608 <__aeabi_dmul>
 8004824:	460b      	mov	r3, r1
 8004826:	4604      	mov	r4, r0
 8004828:	460d      	mov	r5, r1
 800482a:	4602      	mov	r2, r0
 800482c:	4649      	mov	r1, r9
 800482e:	4640      	mov	r0, r8
 8004830:	f7fb fd34 	bl	800029c <__adddf3>
 8004834:	4b1d      	ldr	r3, [pc, #116]	; (80048ac <__ieee754_pow+0x3dc>)
 8004836:	4299      	cmp	r1, r3
 8004838:	ec45 4b19 	vmov	d9, r4, r5
 800483c:	4606      	mov	r6, r0
 800483e:	460f      	mov	r7, r1
 8004840:	468b      	mov	fp, r1
 8004842:	f340 82fe 	ble.w	8004e42 <__ieee754_pow+0x972>
 8004846:	f101 433f 	add.w	r3, r1, #3204448256	; 0xbf000000
 800484a:	f503 03e0 	add.w	r3, r3, #7340032	; 0x700000
 800484e:	4303      	orrs	r3, r0
 8004850:	f000 81f0 	beq.w	8004c34 <__ieee754_pow+0x764>
 8004854:	a310      	add	r3, pc, #64	; (adr r3, 8004898 <__ieee754_pow+0x3c8>)
 8004856:	e9d3 2300 	ldrd	r2, r3, [r3]
 800485a:	ec51 0b18 	vmov	r0, r1, d8
 800485e:	f7fb fed3 	bl	8000608 <__aeabi_dmul>
 8004862:	a30d      	add	r3, pc, #52	; (adr r3, 8004898 <__ieee754_pow+0x3c8>)
 8004864:	e9d3 2300 	ldrd	r2, r3, [r3]
 8004868:	e6cb      	b.n	8004602 <__ieee754_pow+0x132>
 800486a:	bf00      	nop
 800486c:	f3af 8000 	nop.w
 8004870:	60000000 	.word	0x60000000
 8004874:	3ff71547 	.word	0x3ff71547
 8004878:	f85ddf44 	.word	0xf85ddf44
 800487c:	3e54ae0b 	.word	0x3e54ae0b
 8004880:	55555555 	.word	0x55555555
 8004884:	3fd55555 	.word	0x3fd55555
 8004888:	652b82fe 	.word	0x652b82fe
 800488c:	3ff71547 	.word	0x3ff71547
 8004890:	00000000 	.word	0x00000000
 8004894:	bff00000 	.word	0xbff00000
 8004898:	8800759c 	.word	0x8800759c
 800489c:	7e37e43c 	.word	0x7e37e43c
 80048a0:	3ff00000 	.word	0x3ff00000
 80048a4:	3fd00000 	.word	0x3fd00000
 80048a8:	3fe00000 	.word	0x3fe00000
 80048ac:	408fffff 	.word	0x408fffff
 80048b0:	4bd7      	ldr	r3, [pc, #860]	; (8004c10 <__ieee754_pow+0x740>)
 80048b2:	ea03 0309 	and.w	r3, r3, r9
 80048b6:	2200      	movs	r2, #0
 80048b8:	b92b      	cbnz	r3, 80048c6 <__ieee754_pow+0x3f6>
 80048ba:	4bd6      	ldr	r3, [pc, #856]	; (8004c14 <__ieee754_pow+0x744>)
 80048bc:	f7fb fea4 	bl	8000608 <__aeabi_dmul>
 80048c0:	f06f 0234 	mvn.w	r2, #52	; 0x34
 80048c4:	460c      	mov	r4, r1
 80048c6:	1523      	asrs	r3, r4, #20
 80048c8:	f2a3 33ff 	subw	r3, r3, #1023	; 0x3ff
 80048cc:	4413      	add	r3, r2
 80048ce:	9309      	str	r3, [sp, #36]	; 0x24
 80048d0:	4bd1      	ldr	r3, [pc, #836]	; (8004c18 <__ieee754_pow+0x748>)
 80048d2:	f3c4 0413 	ubfx	r4, r4, #0, #20
 80048d6:	f044 557f 	orr.w	r5, r4, #1069547520	; 0x3fc00000
 80048da:	429c      	cmp	r4, r3
 80048dc:	f445 1540 	orr.w	r5, r5, #3145728	; 0x300000
 80048e0:	dd08      	ble.n	80048f4 <__ieee754_pow+0x424>
 80048e2:	4bce      	ldr	r3, [pc, #824]	; (8004c1c <__ieee754_pow+0x74c>)
 80048e4:	429c      	cmp	r4, r3
 80048e6:	f340 8163 	ble.w	8004bb0 <__ieee754_pow+0x6e0>
 80048ea:	9b09      	ldr	r3, [sp, #36]	; 0x24
 80048ec:	3301      	adds	r3, #1
 80048ee:	9309      	str	r3, [sp, #36]	; 0x24
 80048f0:	f5a5 1580 	sub.w	r5, r5, #1048576	; 0x100000
 80048f4:	2400      	movs	r4, #0
 80048f6:	00e3      	lsls	r3, r4, #3
 80048f8:	930b      	str	r3, [sp, #44]	; 0x2c
 80048fa:	4bc9      	ldr	r3, [pc, #804]	; (8004c20 <__ieee754_pow+0x750>)
 80048fc:	eb03 03c4 	add.w	r3, r3, r4, lsl #3
 8004900:	ed93 7b00 	vldr	d7, [r3]
 8004904:	4629      	mov	r1, r5
 8004906:	ec53 2b17 	vmov	r2, r3, d7
 800490a:	eeb0 8a47 	vmov.f32	s16, s14
 800490e:	eef0 8a67 	vmov.f32	s17, s15
 8004912:	4682      	mov	sl, r0
 8004914:	f7fb fcc0 	bl	8000298 <__aeabi_dsub>
 8004918:	4652      	mov	r2, sl
 800491a:	4606      	mov	r6, r0
 800491c:	460f      	mov	r7, r1
 800491e:	462b      	mov	r3, r5
 8004920:	ec51 0b18 	vmov	r0, r1, d8
 8004924:	f7fb fcba 	bl	800029c <__adddf3>
 8004928:	4602      	mov	r2, r0
 800492a:	460b      	mov	r3, r1
 800492c:	2000      	movs	r0, #0
 800492e:	49bd      	ldr	r1, [pc, #756]	; (8004c24 <__ieee754_pow+0x754>)
 8004930:	f7fb ff94 	bl	800085c <__aeabi_ddiv>
 8004934:	ec41 0b19 	vmov	d9, r0, r1
 8004938:	4602      	mov	r2, r0
 800493a:	460b      	mov	r3, r1
 800493c:	4630      	mov	r0, r6
 800493e:	4639      	mov	r1, r7
 8004940:	f7fb fe62 	bl	8000608 <__aeabi_dmul>
 8004944:	e9cd 0106 	strd	r0, r1, [sp, #24]
 8004948:	e9dd 2306 	ldrd	r2, r3, [sp, #24]
 800494c:	e9cd 2304 	strd	r2, r3, [sp, #16]
 8004950:	2300      	movs	r3, #0
 8004952:	9304      	str	r3, [sp, #16]
 8004954:	e9dd 8904 	ldrd	r8, r9, [sp, #16]
 8004958:	46ab      	mov	fp, r5
 800495a:	106d      	asrs	r5, r5, #1
 800495c:	f045 5500 	orr.w	r5, r5, #536870912	; 0x20000000
 8004960:	f505 2500 	add.w	r5, r5, #524288	; 0x80000
 8004964:	eb05 4384 	add.w	r3, r5, r4, lsl #18
 8004968:	2200      	movs	r2, #0
 800496a:	4640      	mov	r0, r8
 800496c:	4649      	mov	r1, r9
 800496e:	4614      	mov	r4, r2
 8004970:	461d      	mov	r5, r3
 8004972:	f7fb fe49 	bl	8000608 <__aeabi_dmul>
 8004976:	4602      	mov	r2, r0
 8004978:	460b      	mov	r3, r1
 800497a:	4630      	mov	r0, r6
 800497c:	4639      	mov	r1, r7
 800497e:	f7fb fc8b 	bl	8000298 <__aeabi_dsub>
 8004982:	ec53 2b18 	vmov	r2, r3, d8
 8004986:	4606      	mov	r6, r0
 8004988:	460f      	mov	r7, r1
 800498a:	4620      	mov	r0, r4
 800498c:	4629      	mov	r1, r5
 800498e:	f7fb fc83 	bl	8000298 <__aeabi_dsub>
 8004992:	4602      	mov	r2, r0
 8004994:	460b      	mov	r3, r1
 8004996:	4650      	mov	r0, sl
 8004998:	4659      	mov	r1, fp
 800499a:	f7fb fc7d 	bl	8000298 <__aeabi_dsub>
 800499e:	4642      	mov	r2, r8
 80049a0:	464b      	mov	r3, r9
 80049a2:	f7fb fe31 	bl	8000608 <__aeabi_dmul>
 80049a6:	4602      	mov	r2, r0
 80049a8:	460b      	mov	r3, r1
 80049aa:	4630      	mov	r0, r6
 80049ac:	4639      	mov	r1, r7
 80049ae:	f7fb fc73 	bl	8000298 <__aeabi_dsub>
 80049b2:	ec53 2b19 	vmov	r2, r3, d9
 80049b6:	f7fb fe27 	bl	8000608 <__aeabi_dmul>
 80049ba:	e9dd 2306 	ldrd	r2, r3, [sp, #24]
 80049be:	ec41 0b18 	vmov	d8, r0, r1
 80049c2:	4610      	mov	r0, r2
 80049c4:	4619      	mov	r1, r3
 80049c6:	f7fb fe1f 	bl	8000608 <__aeabi_dmul>
 80049ca:	a37d      	add	r3, pc, #500	; (adr r3, 8004bc0 <__ieee754_pow+0x6f0>)
 80049cc:	e9d3 2300 	ldrd	r2, r3, [r3]
 80049d0:	4604      	mov	r4, r0
 80049d2:	460d      	mov	r5, r1
 80049d4:	f7fb fe18 	bl	8000608 <__aeabi_dmul>
 80049d8:	a37b      	add	r3, pc, #492	; (adr r3, 8004bc8 <__ieee754_pow+0x6f8>)
 80049da:	e9d3 2300 	ldrd	r2, r3, [r3]
 80049de:	f7fb fc5d 	bl	800029c <__adddf3>
 80049e2:	4622      	mov	r2, r4
 80049e4:	462b      	mov	r3, r5
 80049e6:	f7fb fe0f 	bl	8000608 <__aeabi_dmul>
 80049ea:	a379      	add	r3, pc, #484	; (adr r3, 8004bd0 <__ieee754_pow+0x700>)
 80049ec:	e9d3 2300 	ldrd	r2, r3, [r3]
 80049f0:	f7fb fc54 	bl	800029c <__adddf3>
 80049f4:	4622      	mov	r2, r4
 80049f6:	462b      	mov	r3, r5
 80049f8:	f7fb fe06 	bl	8000608 <__aeabi_dmul>
 80049fc:	a376      	add	r3, pc, #472	; (adr r3, 8004bd8 <__ieee754_pow+0x708>)
 80049fe:	e9d3 2300 	ldrd	r2, r3, [r3]
 8004a02:	f7fb fc4b 	bl	800029c <__adddf3>
 8004a06:	4622      	mov	r2, r4
 8004a08:	462b      	mov	r3, r5
 8004a0a:	f7fb fdfd 	bl	8000608 <__aeabi_dmul>
 8004a0e:	a374      	add	r3, pc, #464	; (adr r3, 8004be0 <__ieee754_pow+0x710>)
 8004a10:	e9d3 2300 	ldrd	r2, r3, [r3]
 8004a14:	f7fb fc42 	bl	800029c <__adddf3>
 8004a18:	4622      	mov	r2, r4
 8004a1a:	462b      	mov	r3, r5
 8004a1c:	f7fb fdf4 	bl	8000608 <__aeabi_dmul>
 8004a20:	a371      	add	r3, pc, #452	; (adr r3, 8004be8 <__ieee754_pow+0x718>)
 8004a22:	e9d3 2300 	ldrd	r2, r3, [r3]
 8004a26:	f7fb fc39 	bl	800029c <__adddf3>
 8004a2a:	4622      	mov	r2, r4
 8004a2c:	4606      	mov	r6, r0
 8004a2e:	460f      	mov	r7, r1
 8004a30:	462b      	mov	r3, r5
 8004a32:	4620      	mov	r0, r4
 8004a34:	4629      	mov	r1, r5
 8004a36:	f7fb fde7 	bl	8000608 <__aeabi_dmul>
 8004a3a:	4602      	mov	r2, r0
 8004a3c:	460b      	mov	r3, r1
 8004a3e:	4630      	mov	r0, r6
 8004a40:	4639      	mov	r1, r7
 8004a42:	f7fb fde1 	bl	8000608 <__aeabi_dmul>
 8004a46:	4642      	mov	r2, r8
 8004a48:	4604      	mov	r4, r0
 8004a4a:	460d      	mov	r5, r1
 8004a4c:	464b      	mov	r3, r9
 8004a4e:	e9dd 0106 	ldrd	r0, r1, [sp, #24]
 8004a52:	f7fb fc23 	bl	800029c <__adddf3>
 8004a56:	ec53 2b18 	vmov	r2, r3, d8
 8004a5a:	f7fb fdd5 	bl	8000608 <__aeabi_dmul>
 8004a5e:	4622      	mov	r2, r4
 8004a60:	462b      	mov	r3, r5
 8004a62:	f7fb fc1b 	bl	800029c <__adddf3>
 8004a66:	4642      	mov	r2, r8
 8004a68:	4682      	mov	sl, r0
 8004a6a:	468b      	mov	fp, r1
 8004a6c:	464b      	mov	r3, r9
 8004a6e:	4640      	mov	r0, r8
 8004a70:	4649      	mov	r1, r9
 8004a72:	f7fb fdc9 	bl	8000608 <__aeabi_dmul>
 8004a76:	4b6c      	ldr	r3, [pc, #432]	; (8004c28 <__ieee754_pow+0x758>)
 8004a78:	2200      	movs	r2, #0
 8004a7a:	4606      	mov	r6, r0
 8004a7c:	460f      	mov	r7, r1
 8004a7e:	f7fb fc0d 	bl	800029c <__adddf3>
 8004a82:	4652      	mov	r2, sl
 8004a84:	465b      	mov	r3, fp
 8004a86:	f7fb fc09 	bl	800029c <__adddf3>
 8004a8a:	9c04      	ldr	r4, [sp, #16]
 8004a8c:	460d      	mov	r5, r1
 8004a8e:	4622      	mov	r2, r4
 8004a90:	460b      	mov	r3, r1
 8004a92:	4640      	mov	r0, r8
 8004a94:	4649      	mov	r1, r9
 8004a96:	f7fb fdb7 	bl	8000608 <__aeabi_dmul>
 8004a9a:	4b63      	ldr	r3, [pc, #396]	; (8004c28 <__ieee754_pow+0x758>)
 8004a9c:	4680      	mov	r8, r0
 8004a9e:	4689      	mov	r9, r1
 8004aa0:	2200      	movs	r2, #0
 8004aa2:	4620      	mov	r0, r4
 8004aa4:	4629      	mov	r1, r5
 8004aa6:	f7fb fbf7 	bl	8000298 <__aeabi_dsub>
 8004aaa:	4632      	mov	r2, r6
 8004aac:	463b      	mov	r3, r7
 8004aae:	f7fb fbf3 	bl	8000298 <__aeabi_dsub>
 8004ab2:	4602      	mov	r2, r0
 8004ab4:	460b      	mov	r3, r1
 8004ab6:	4650      	mov	r0, sl
 8004ab8:	4659      	mov	r1, fp
 8004aba:	f7fb fbed 	bl	8000298 <__aeabi_dsub>
 8004abe:	e9dd 2306 	ldrd	r2, r3, [sp, #24]
 8004ac2:	f7fb fda1 	bl	8000608 <__aeabi_dmul>
 8004ac6:	4622      	mov	r2, r4
 8004ac8:	4606      	mov	r6, r0
 8004aca:	460f      	mov	r7, r1
 8004acc:	462b      	mov	r3, r5
 8004ace:	ec51 0b18 	vmov	r0, r1, d8
 8004ad2:	f7fb fd99 	bl	8000608 <__aeabi_dmul>
 8004ad6:	4602      	mov	r2, r0
 8004ad8:	460b      	mov	r3, r1
 8004ada:	4630      	mov	r0, r6
 8004adc:	4639      	mov	r1, r7
 8004ade:	f7fb fbdd 	bl	800029c <__adddf3>
 8004ae2:	4606      	mov	r6, r0
 8004ae4:	460f      	mov	r7, r1
 8004ae6:	4602      	mov	r2, r0
 8004ae8:	460b      	mov	r3, r1
 8004aea:	4640      	mov	r0, r8
 8004aec:	4649      	mov	r1, r9
 8004aee:	f7fb fbd5 	bl	800029c <__adddf3>
 8004af2:	9c04      	ldr	r4, [sp, #16]
 8004af4:	a33e      	add	r3, pc, #248	; (adr r3, 8004bf0 <__ieee754_pow+0x720>)
 8004af6:	e9d3 2300 	ldrd	r2, r3, [r3]
 8004afa:	4620      	mov	r0, r4
 8004afc:	460d      	mov	r5, r1
 8004afe:	f7fb fd83 	bl	8000608 <__aeabi_dmul>
 8004b02:	4642      	mov	r2, r8
 8004b04:	ec41 0b18 	vmov	d8, r0, r1
 8004b08:	464b      	mov	r3, r9
 8004b0a:	4620      	mov	r0, r4
 8004b0c:	4629      	mov	r1, r5
 8004b0e:	f7fb fbc3 	bl	8000298 <__aeabi_dsub>
 8004b12:	4602      	mov	r2, r0
 8004b14:	460b      	mov	r3, r1
 8004b16:	4630      	mov	r0, r6
 8004b18:	4639      	mov	r1, r7
 8004b1a:	f7fb fbbd 	bl	8000298 <__aeabi_dsub>
 8004b1e:	a336      	add	r3, pc, #216	; (adr r3, 8004bf8 <__ieee754_pow+0x728>)
 8004b20:	e9d3 2300 	ldrd	r2, r3, [r3]
 8004b24:	f7fb fd70 	bl	8000608 <__aeabi_dmul>
 8004b28:	a335      	add	r3, pc, #212	; (adr r3, 8004c00 <__ieee754_pow+0x730>)
 8004b2a:	e9d3 2300 	ldrd	r2, r3, [r3]
 8004b2e:	4606      	mov	r6, r0
 8004b30:	460f      	mov	r7, r1
 8004b32:	4620      	mov	r0, r4
 8004b34:	4629      	mov	r1, r5
 8004b36:	f7fb fd67 	bl	8000608 <__aeabi_dmul>
 8004b3a:	4602      	mov	r2, r0
 8004b3c:	460b      	mov	r3, r1
 8004b3e:	4630      	mov	r0, r6
 8004b40:	4639      	mov	r1, r7
 8004b42:	f7fb fbab 	bl	800029c <__adddf3>
 8004b46:	9a0b      	ldr	r2, [sp, #44]	; 0x2c
 8004b48:	4b38      	ldr	r3, [pc, #224]	; (8004c2c <__ieee754_pow+0x75c>)
 8004b4a:	4413      	add	r3, r2
 8004b4c:	e9d3 2300 	ldrd	r2, r3, [r3]
 8004b50:	f7fb fba4 	bl	800029c <__adddf3>
 8004b54:	4682      	mov	sl, r0
 8004b56:	9809      	ldr	r0, [sp, #36]	; 0x24
 8004b58:	468b      	mov	fp, r1
 8004b5a:	f7fb fceb 	bl	8000534 <__aeabi_i2d>
 8004b5e:	9a0b      	ldr	r2, [sp, #44]	; 0x2c
 8004b60:	4b33      	ldr	r3, [pc, #204]	; (8004c30 <__ieee754_pow+0x760>)
 8004b62:	4413      	add	r3, r2
 8004b64:	e9d3 8900 	ldrd	r8, r9, [r3]
 8004b68:	4606      	mov	r6, r0
 8004b6a:	460f      	mov	r7, r1
 8004b6c:	4652      	mov	r2, sl
 8004b6e:	465b      	mov	r3, fp
 8004b70:	ec51 0b18 	vmov	r0, r1, d8
 8004b74:	f7fb fb92 	bl	800029c <__adddf3>
 8004b78:	4642      	mov	r2, r8
 8004b7a:	464b      	mov	r3, r9
 8004b7c:	f7fb fb8e 	bl	800029c <__adddf3>
 8004b80:	4632      	mov	r2, r6
 8004b82:	463b      	mov	r3, r7
 8004b84:	f7fb fb8a 	bl	800029c <__adddf3>
 8004b88:	9c04      	ldr	r4, [sp, #16]
 8004b8a:	4632      	mov	r2, r6
 8004b8c:	463b      	mov	r3, r7
 8004b8e:	4620      	mov	r0, r4
 8004b90:	460d      	mov	r5, r1
 8004b92:	f7fb fb81 	bl	8000298 <__aeabi_dsub>
 8004b96:	4642      	mov	r2, r8
 8004b98:	464b      	mov	r3, r9
 8004b9a:	f7fb fb7d 	bl	8000298 <__aeabi_dsub>
 8004b9e:	ec53 2b18 	vmov	r2, r3, d8
 8004ba2:	f7fb fb79 	bl	8000298 <__aeabi_dsub>
 8004ba6:	4602      	mov	r2, r0
 8004ba8:	460b      	mov	r3, r1
 8004baa:	4650      	mov	r0, sl
 8004bac:	4659      	mov	r1, fp
 8004bae:	e606      	b.n	80047be <__ieee754_pow+0x2ee>
 8004bb0:	2401      	movs	r4, #1
 8004bb2:	e6a0      	b.n	80048f6 <__ieee754_pow+0x426>
 8004bb4:	ed9f 7b14 	vldr	d7, [pc, #80]	; 8004c08 <__ieee754_pow+0x738>
 8004bb8:	e60d      	b.n	80047d6 <__ieee754_pow+0x306>
 8004bba:	bf00      	nop
 8004bbc:	f3af 8000 	nop.w
 8004bc0:	4a454eef 	.word	0x4a454eef
 8004bc4:	3fca7e28 	.word	0x3fca7e28
 8004bc8:	93c9db65 	.word	0x93c9db65
 8004bcc:	3fcd864a 	.word	0x3fcd864a
 8004bd0:	a91d4101 	.word	0xa91d4101
 8004bd4:	3fd17460 	.word	0x3fd17460
 8004bd8:	518f264d 	.word	0x518f264d
 8004bdc:	3fd55555 	.word	0x3fd55555
 8004be0:	db6fabff 	.word	0xdb6fabff
 8004be4:	3fdb6db6 	.word	0x3fdb6db6
 8004be8:	33333303 	.word	0x33333303
 8004bec:	3fe33333 	.word	0x3fe33333
 8004bf0:	e0000000 	.word	0xe0000000
 8004bf4:	3feec709 	.word	0x3feec709
 8004bf8:	dc3a03fd 	.word	0xdc3a03fd
 8004bfc:	3feec709 	.word	0x3feec709
 8004c00:	145b01f5 	.word	0x145b01f5
 8004c04:	be3e2fe0 	.word	0xbe3e2fe0
 8004c08:	00000000 	.word	0x00000000
 8004c0c:	3ff00000 	.word	0x3ff00000
 8004c10:	7ff00000 	.word	0x7ff00000
 8004c14:	43400000 	.word	0x43400000
 8004c18:	0003988e 	.word	0x0003988e
 8004c1c:	000bb679 	.word	0x000bb679
 8004c20:	080060b0 	.word	0x080060b0
 8004c24:	3ff00000 	.word	0x3ff00000
 8004c28:	40080000 	.word	0x40080000
 8004c2c:	080060d0 	.word	0x080060d0
 8004c30:	080060c0 	.word	0x080060c0
 8004c34:	a3b5      	add	r3, pc, #724	; (adr r3, 8004f0c <__ieee754_pow+0xa3c>)
 8004c36:	e9d3 2300 	ldrd	r2, r3, [r3]
 8004c3a:	4640      	mov	r0, r8
 8004c3c:	4649      	mov	r1, r9
 8004c3e:	f7fb fb2d 	bl	800029c <__adddf3>
 8004c42:	4622      	mov	r2, r4
 8004c44:	ec41 0b1a 	vmov	d10, r0, r1
 8004c48:	462b      	mov	r3, r5
 8004c4a:	4630      	mov	r0, r6
 8004c4c:	4639      	mov	r1, r7
 8004c4e:	f7fb fb23 	bl	8000298 <__aeabi_dsub>
 8004c52:	4602      	mov	r2, r0
 8004c54:	460b      	mov	r3, r1
 8004c56:	ec51 0b1a 	vmov	r0, r1, d10
 8004c5a:	f7fb ff65 	bl	8000b28 <__aeabi_dcmpgt>
 8004c5e:	2800      	cmp	r0, #0
 8004c60:	f47f adf8 	bne.w	8004854 <__ieee754_pow+0x384>
 8004c64:	4aa4      	ldr	r2, [pc, #656]	; (8004ef8 <__ieee754_pow+0xa28>)
 8004c66:	f02b 4300 	bic.w	r3, fp, #2147483648	; 0x80000000
 8004c6a:	4293      	cmp	r3, r2
 8004c6c:	f340 810b 	ble.w	8004e86 <__ieee754_pow+0x9b6>
 8004c70:	151b      	asrs	r3, r3, #20
 8004c72:	f44f 1a80 	mov.w	sl, #1048576	; 0x100000
 8004c76:	f2a3 33fe 	subw	r3, r3, #1022	; 0x3fe
 8004c7a:	fa4a f303 	asr.w	r3, sl, r3
 8004c7e:	445b      	add	r3, fp
 8004c80:	f3c3 520a 	ubfx	r2, r3, #20, #11
 8004c84:	4e9d      	ldr	r6, [pc, #628]	; (8004efc <__ieee754_pow+0xa2c>)
 8004c86:	f2a2 32ff 	subw	r2, r2, #1023	; 0x3ff
 8004c8a:	4116      	asrs	r6, r2
 8004c8c:	f3c3 0a13 	ubfx	sl, r3, #0, #20
 8004c90:	2000      	movs	r0, #0
 8004c92:	ea23 0106 	bic.w	r1, r3, r6
 8004c96:	f1c2 0214 	rsb	r2, r2, #20
 8004c9a:	f44a 1a80 	orr.w	sl, sl, #1048576	; 0x100000
 8004c9e:	fa4a fa02 	asr.w	sl, sl, r2
 8004ca2:	f1bb 0f00 	cmp.w	fp, #0
 8004ca6:	4602      	mov	r2, r0
 8004ca8:	460b      	mov	r3, r1
 8004caa:	4620      	mov	r0, r4
 8004cac:	4629      	mov	r1, r5
 8004cae:	bfb8      	it	lt
 8004cb0:	f1ca 0a00 	rsblt	sl, sl, #0
 8004cb4:	f7fb faf0 	bl	8000298 <__aeabi_dsub>
 8004cb8:	ec41 0b19 	vmov	d9, r0, r1
 8004cbc:	4642      	mov	r2, r8
 8004cbe:	464b      	mov	r3, r9
 8004cc0:	ec51 0b19 	vmov	r0, r1, d9
 8004cc4:	f7fb faea 	bl	800029c <__adddf3>
 8004cc8:	2400      	movs	r4, #0
 8004cca:	a379      	add	r3, pc, #484	; (adr r3, 8004eb0 <__ieee754_pow+0x9e0>)
 8004ccc:	e9d3 2300 	ldrd	r2, r3, [r3]
 8004cd0:	4620      	mov	r0, r4
 8004cd2:	460d      	mov	r5, r1
 8004cd4:	f7fb fc98 	bl	8000608 <__aeabi_dmul>
 8004cd8:	ec53 2b19 	vmov	r2, r3, d9
 8004cdc:	4606      	mov	r6, r0
 8004cde:	460f      	mov	r7, r1
 8004ce0:	4620      	mov	r0, r4
 8004ce2:	4629      	mov	r1, r5
 8004ce4:	f7fb fad8 	bl	8000298 <__aeabi_dsub>
 8004ce8:	4602      	mov	r2, r0
 8004cea:	460b      	mov	r3, r1
 8004cec:	4640      	mov	r0, r8
 8004cee:	4649      	mov	r1, r9
 8004cf0:	f7fb fad2 	bl	8000298 <__aeabi_dsub>
 8004cf4:	a370      	add	r3, pc, #448	; (adr r3, 8004eb8 <__ieee754_pow+0x9e8>)
 8004cf6:	e9d3 2300 	ldrd	r2, r3, [r3]
 8004cfa:	f7fb fc85 	bl	8000608 <__aeabi_dmul>
 8004cfe:	a370      	add	r3, pc, #448	; (adr r3, 8004ec0 <__ieee754_pow+0x9f0>)
 8004d00:	e9d3 2300 	ldrd	r2, r3, [r3]
 8004d04:	4680      	mov	r8, r0
 8004d06:	4689      	mov	r9, r1
 8004d08:	4620      	mov	r0, r4
 8004d0a:	4629      	mov	r1, r5
 8004d0c:	f7fb fc7c 	bl	8000608 <__aeabi_dmul>
 8004d10:	4602      	mov	r2, r0
 8004d12:	460b      	mov	r3, r1
 8004d14:	4640      	mov	r0, r8
 8004d16:	4649      	mov	r1, r9
 8004d18:	f7fb fac0 	bl	800029c <__adddf3>
 8004d1c:	4604      	mov	r4, r0
 8004d1e:	460d      	mov	r5, r1
 8004d20:	4602      	mov	r2, r0
 8004d22:	460b      	mov	r3, r1
 8004d24:	4630      	mov	r0, r6
 8004d26:	4639      	mov	r1, r7
 8004d28:	f7fb fab8 	bl	800029c <__adddf3>
 8004d2c:	4632      	mov	r2, r6
 8004d2e:	463b      	mov	r3, r7
 8004d30:	4680      	mov	r8, r0
 8004d32:	4689      	mov	r9, r1
 8004d34:	f7fb fab0 	bl	8000298 <__aeabi_dsub>
 8004d38:	4602      	mov	r2, r0
 8004d3a:	460b      	mov	r3, r1
 8004d3c:	4620      	mov	r0, r4
 8004d3e:	4629      	mov	r1, r5
 8004d40:	f7fb faaa 	bl	8000298 <__aeabi_dsub>
 8004d44:	4642      	mov	r2, r8
 8004d46:	4606      	mov	r6, r0
 8004d48:	460f      	mov	r7, r1
 8004d4a:	464b      	mov	r3, r9
 8004d4c:	4640      	mov	r0, r8
 8004d4e:	4649      	mov	r1, r9
 8004d50:	f7fb fc5a 	bl	8000608 <__aeabi_dmul>
 8004d54:	a35c      	add	r3, pc, #368	; (adr r3, 8004ec8 <__ieee754_pow+0x9f8>)
 8004d56:	e9d3 2300 	ldrd	r2, r3, [r3]
 8004d5a:	4604      	mov	r4, r0
 8004d5c:	460d      	mov	r5, r1
 8004d5e:	f7fb fc53 	bl	8000608 <__aeabi_dmul>
 8004d62:	a35b      	add	r3, pc, #364	; (adr r3, 8004ed0 <__ieee754_pow+0xa00>)
 8004d64:	e9d3 2300 	ldrd	r2, r3, [r3]
 8004d68:	f7fb fa96 	bl	8000298 <__aeabi_dsub>
 8004d6c:	4622      	mov	r2, r4
 8004d6e:	462b      	mov	r3, r5
 8004d70:	f7fb fc4a 	bl	8000608 <__aeabi_dmul>
 8004d74:	a358      	add	r3, pc, #352	; (adr r3, 8004ed8 <__ieee754_pow+0xa08>)
 8004d76:	e9d3 2300 	ldrd	r2, r3, [r3]
 8004d7a:	f7fb fa8f 	bl	800029c <__adddf3>
 8004d7e:	4622      	mov	r2, r4
 8004d80:	462b      	mov	r3, r5
 8004d82:	f7fb fc41 	bl	8000608 <__aeabi_dmul>
 8004d86:	a356      	add	r3, pc, #344	; (adr r3, 8004ee0 <__ieee754_pow+0xa10>)
 8004d88:	e9d3 2300 	ldrd	r2, r3, [r3]
 8004d8c:	f7fb fa84 	bl	8000298 <__aeabi_dsub>
 8004d90:	4622      	mov	r2, r4
 8004d92:	462b      	mov	r3, r5
 8004d94:	f7fb fc38 	bl	8000608 <__aeabi_dmul>
 8004d98:	a353      	add	r3, pc, #332	; (adr r3, 8004ee8 <__ieee754_pow+0xa18>)
 8004d9a:	e9d3 2300 	ldrd	r2, r3, [r3]
 8004d9e:	f7fb fa7d 	bl	800029c <__adddf3>
 8004da2:	4622      	mov	r2, r4
 8004da4:	462b      	mov	r3, r5
 8004da6:	f7fb fc2f 	bl	8000608 <__aeabi_dmul>
 8004daa:	4602      	mov	r2, r0
 8004dac:	460b      	mov	r3, r1
 8004dae:	4640      	mov	r0, r8
 8004db0:	4649      	mov	r1, r9
 8004db2:	f7fb fa71 	bl	8000298 <__aeabi_dsub>
 8004db6:	4604      	mov	r4, r0
 8004db8:	460d      	mov	r5, r1
 8004dba:	4602      	mov	r2, r0
 8004dbc:	460b      	mov	r3, r1
 8004dbe:	4640      	mov	r0, r8
 8004dc0:	4649      	mov	r1, r9
 8004dc2:	f7fb fc21 	bl	8000608 <__aeabi_dmul>
 8004dc6:	2200      	movs	r2, #0
 8004dc8:	ec41 0b19 	vmov	d9, r0, r1
 8004dcc:	f04f 4380 	mov.w	r3, #1073741824	; 0x40000000
 8004dd0:	4620      	mov	r0, r4
 8004dd2:	4629      	mov	r1, r5
 8004dd4:	f7fb fa60 	bl	8000298 <__aeabi_dsub>
 8004dd8:	4602      	mov	r2, r0
 8004dda:	460b      	mov	r3, r1
 8004ddc:	ec51 0b19 	vmov	r0, r1, d9
 8004de0:	f7fb fd3c 	bl	800085c <__aeabi_ddiv>
 8004de4:	4632      	mov	r2, r6
 8004de6:	4604      	mov	r4, r0
 8004de8:	460d      	mov	r5, r1
 8004dea:	463b      	mov	r3, r7
 8004dec:	4640      	mov	r0, r8
 8004dee:	4649      	mov	r1, r9
 8004df0:	f7fb fc0a 	bl	8000608 <__aeabi_dmul>
 8004df4:	4632      	mov	r2, r6
 8004df6:	463b      	mov	r3, r7
 8004df8:	f7fb fa50 	bl	800029c <__adddf3>
 8004dfc:	4602      	mov	r2, r0
 8004dfe:	460b      	mov	r3, r1
 8004e00:	4620      	mov	r0, r4
 8004e02:	4629      	mov	r1, r5
 8004e04:	f7fb fa48 	bl	8000298 <__aeabi_dsub>
 8004e08:	4642      	mov	r2, r8
 8004e0a:	464b      	mov	r3, r9
 8004e0c:	f7fb fa44 	bl	8000298 <__aeabi_dsub>
 8004e10:	460b      	mov	r3, r1
 8004e12:	4602      	mov	r2, r0
 8004e14:	493a      	ldr	r1, [pc, #232]	; (8004f00 <__ieee754_pow+0xa30>)
 8004e16:	2000      	movs	r0, #0
 8004e18:	f7fb fa3e 	bl	8000298 <__aeabi_dsub>
 8004e1c:	e9cd 0100 	strd	r0, r1, [sp]
 8004e20:	9b01      	ldr	r3, [sp, #4]
 8004e22:	eb03 530a 	add.w	r3, r3, sl, lsl #20
 8004e26:	f5b3 1f80 	cmp.w	r3, #1048576	; 0x100000
 8004e2a:	da2f      	bge.n	8004e8c <__ieee754_pow+0x9bc>
 8004e2c:	4650      	mov	r0, sl
 8004e2e:	ed9d 0b00 	vldr	d0, [sp]
 8004e32:	f000 f9cd 	bl	80051d0 <scalbn>
 8004e36:	ec51 0b10 	vmov	r0, r1, d0
 8004e3a:	ec53 2b18 	vmov	r2, r3, d8
 8004e3e:	f7ff bbe0 	b.w	8004602 <__ieee754_pow+0x132>
 8004e42:	4b30      	ldr	r3, [pc, #192]	; (8004f04 <__ieee754_pow+0xa34>)
 8004e44:	f021 4600 	bic.w	r6, r1, #2147483648	; 0x80000000
 8004e48:	429e      	cmp	r6, r3
 8004e4a:	f77f af0b 	ble.w	8004c64 <__ieee754_pow+0x794>
 8004e4e:	4b2e      	ldr	r3, [pc, #184]	; (8004f08 <__ieee754_pow+0xa38>)
 8004e50:	440b      	add	r3, r1
 8004e52:	4303      	orrs	r3, r0
 8004e54:	d00b      	beq.n	8004e6e <__ieee754_pow+0x99e>
 8004e56:	a326      	add	r3, pc, #152	; (adr r3, 8004ef0 <__ieee754_pow+0xa20>)
 8004e58:	e9d3 2300 	ldrd	r2, r3, [r3]
 8004e5c:	ec51 0b18 	vmov	r0, r1, d8
 8004e60:	f7fb fbd2 	bl	8000608 <__aeabi_dmul>
 8004e64:	a322      	add	r3, pc, #136	; (adr r3, 8004ef0 <__ieee754_pow+0xa20>)
 8004e66:	e9d3 2300 	ldrd	r2, r3, [r3]
 8004e6a:	f7ff bbca 	b.w	8004602 <__ieee754_pow+0x132>
 8004e6e:	4622      	mov	r2, r4
 8004e70:	462b      	mov	r3, r5
 8004e72:	f7fb fa11 	bl	8000298 <__aeabi_dsub>
 8004e76:	4642      	mov	r2, r8
 8004e78:	464b      	mov	r3, r9
 8004e7a:	f7fb fe4b 	bl	8000b14 <__aeabi_dcmpge>
 8004e7e:	2800      	cmp	r0, #0
 8004e80:	f43f aef0 	beq.w	8004c64 <__ieee754_pow+0x794>
 8004e84:	e7e7      	b.n	8004e56 <__ieee754_pow+0x986>
 8004e86:	f04f 0a00 	mov.w	sl, #0
 8004e8a:	e717      	b.n	8004cbc <__ieee754_pow+0x7ec>
 8004e8c:	e9dd 0100 	ldrd	r0, r1, [sp]
 8004e90:	4619      	mov	r1, r3
 8004e92:	e7d2      	b.n	8004e3a <__ieee754_pow+0x96a>
 8004e94:	491a      	ldr	r1, [pc, #104]	; (8004f00 <__ieee754_pow+0xa30>)
 8004e96:	2000      	movs	r0, #0
 8004e98:	f7ff bb9e 	b.w	80045d8 <__ieee754_pow+0x108>
 8004e9c:	e9dd 0102 	ldrd	r0, r1, [sp, #8]
 8004ea0:	f7ff bb9a 	b.w	80045d8 <__ieee754_pow+0x108>
 8004ea4:	9000      	str	r0, [sp, #0]
 8004ea6:	f7ff bb76 	b.w	8004596 <__ieee754_pow+0xc6>
 8004eaa:	2100      	movs	r1, #0
 8004eac:	f7ff bb60 	b.w	8004570 <__ieee754_pow+0xa0>
 8004eb0:	00000000 	.word	0x00000000
 8004eb4:	3fe62e43 	.word	0x3fe62e43
 8004eb8:	fefa39ef 	.word	0xfefa39ef
 8004ebc:	3fe62e42 	.word	0x3fe62e42
 8004ec0:	0ca86c39 	.word	0x0ca86c39
 8004ec4:	be205c61 	.word	0xbe205c61
 8004ec8:	72bea4d0 	.word	0x72bea4d0
 8004ecc:	3e663769 	.word	0x3e663769
 8004ed0:	c5d26bf1 	.word	0xc5d26bf1
 8004ed4:	3ebbbd41 	.word	0x3ebbbd41
 8004ed8:	af25de2c 	.word	0xaf25de2c
 8004edc:	3f11566a 	.word	0x3f11566a
 8004ee0:	16bebd93 	.word	0x16bebd93
 8004ee4:	3f66c16c 	.word	0x3f66c16c
 8004ee8:	5555553e 	.word	0x5555553e
 8004eec:	3fc55555 	.word	0x3fc55555
 8004ef0:	c2f8f359 	.word	0xc2f8f359
 8004ef4:	01a56e1f 	.word	0x01a56e1f
 8004ef8:	3fe00000 	.word	0x3fe00000
 8004efc:	000fffff 	.word	0x000fffff
 8004f00:	3ff00000 	.word	0x3ff00000
 8004f04:	4090cbff 	.word	0x4090cbff
 8004f08:	3f6f3400 	.word	0x3f6f3400
 8004f0c:	652b82fe 	.word	0x652b82fe
 8004f10:	3c971547 	.word	0x3c971547

08004f14 <__ieee754_sqrt>:
 8004f14:	e92d 41f0 	stmdb	sp!, {r4, r5, r6, r7, r8, lr}
 8004f18:	ec55 4b10 	vmov	r4, r5, d0
 8004f1c:	4e56      	ldr	r6, [pc, #344]	; (8005078 <__ieee754_sqrt+0x164>)
 8004f1e:	43ae      	bics	r6, r5
 8004f20:	ee10 0a10 	vmov	r0, s0
 8004f24:	ee10 3a10 	vmov	r3, s0
 8004f28:	4629      	mov	r1, r5
 8004f2a:	462a      	mov	r2, r5
 8004f2c:	d110      	bne.n	8004f50 <__ieee754_sqrt+0x3c>
 8004f2e:	ee10 2a10 	vmov	r2, s0
 8004f32:	462b      	mov	r3, r5
 8004f34:	f7fb fb68 	bl	8000608 <__aeabi_dmul>
 8004f38:	4602      	mov	r2, r0
 8004f3a:	460b      	mov	r3, r1
 8004f3c:	4620      	mov	r0, r4
 8004f3e:	4629      	mov	r1, r5
 8004f40:	f7fb f9ac 	bl	800029c <__adddf3>
 8004f44:	4604      	mov	r4, r0
 8004f46:	460d      	mov	r5, r1
 8004f48:	ec45 4b10 	vmov	d0, r4, r5
 8004f4c:	e8bd 81f0 	ldmia.w	sp!, {r4, r5, r6, r7, r8, pc}
 8004f50:	2d00      	cmp	r5, #0
 8004f52:	dc10      	bgt.n	8004f76 <__ieee754_sqrt+0x62>
 8004f54:	f025 4600 	bic.w	r6, r5, #2147483648	; 0x80000000
 8004f58:	4330      	orrs	r0, r6
 8004f5a:	d0f5      	beq.n	8004f48 <__ieee754_sqrt+0x34>
 8004f5c:	b15d      	cbz	r5, 8004f76 <__ieee754_sqrt+0x62>
 8004f5e:	ee10 2a10 	vmov	r2, s0
 8004f62:	462b      	mov	r3, r5
 8004f64:	ee10 0a10 	vmov	r0, s0
 8004f68:	f7fb f996 	bl	8000298 <__aeabi_dsub>
 8004f6c:	4602      	mov	r2, r0
 8004f6e:	460b      	mov	r3, r1
 8004f70:	f7fb fc74 	bl	800085c <__aeabi_ddiv>
 8004f74:	e7e6      	b.n	8004f44 <__ieee754_sqrt+0x30>
 8004f76:	1509      	asrs	r1, r1, #20
 8004f78:	d076      	beq.n	8005068 <__ieee754_sqrt+0x154>
 8004f7a:	f3c2 0213 	ubfx	r2, r2, #0, #20
 8004f7e:	07ce      	lsls	r6, r1, #31
 8004f80:	f442 1080 	orr.w	r0, r2, #1048576	; 0x100000
 8004f84:	bf5e      	ittt	pl
 8004f86:	0fda      	lsrpl	r2, r3, #31
 8004f88:	005b      	lslpl	r3, r3, #1
 8004f8a:	eb02 0040 	addpl.w	r0, r2, r0, lsl #1
 8004f8e:	0fda      	lsrs	r2, r3, #31
 8004f90:	f2a1 35ff 	subw	r5, r1, #1023	; 0x3ff
 8004f94:	eb02 0240 	add.w	r2, r2, r0, lsl #1
 8004f98:	2000      	movs	r0, #0
 8004f9a:	106d      	asrs	r5, r5, #1
 8004f9c:	005b      	lsls	r3, r3, #1
 8004f9e:	f04f 0e16 	mov.w	lr, #22
 8004fa2:	4684      	mov	ip, r0
 8004fa4:	f44f 1100 	mov.w	r1, #2097152	; 0x200000
 8004fa8:	eb0c 0401 	add.w	r4, ip, r1
 8004fac:	4294      	cmp	r4, r2
 8004fae:	bfde      	ittt	le
 8004fb0:	1b12      	suble	r2, r2, r4
 8004fb2:	eb04 0c01 	addle.w	ip, r4, r1
 8004fb6:	1840      	addle	r0, r0, r1
 8004fb8:	0052      	lsls	r2, r2, #1
 8004fba:	f1be 0e01 	subs.w	lr, lr, #1
 8004fbe:	eb02 72d3 	add.w	r2, r2, r3, lsr #31
 8004fc2:	ea4f 0151 	mov.w	r1, r1, lsr #1
 8004fc6:	ea4f 0343 	mov.w	r3, r3, lsl #1
 8004fca:	d1ed      	bne.n	8004fa8 <__ieee754_sqrt+0x94>
 8004fcc:	4671      	mov	r1, lr
 8004fce:	2720      	movs	r7, #32
 8004fd0:	f04f 4400 	mov.w	r4, #2147483648	; 0x80000000
 8004fd4:	4562      	cmp	r2, ip
 8004fd6:	eb04 060e 	add.w	r6, r4, lr
 8004fda:	dc02      	bgt.n	8004fe2 <__ieee754_sqrt+0xce>
 8004fdc:	d113      	bne.n	8005006 <__ieee754_sqrt+0xf2>
 8004fde:	429e      	cmp	r6, r3
 8004fe0:	d811      	bhi.n	8005006 <__ieee754_sqrt+0xf2>
 8004fe2:	2e00      	cmp	r6, #0
 8004fe4:	eb06 0e04 	add.w	lr, r6, r4
 8004fe8:	da43      	bge.n	8005072 <__ieee754_sqrt+0x15e>
 8004fea:	f1be 0f00 	cmp.w	lr, #0
 8004fee:	db40      	blt.n	8005072 <__ieee754_sqrt+0x15e>
 8004ff0:	f10c 0801 	add.w	r8, ip, #1
 8004ff4:	eba2 020c 	sub.w	r2, r2, ip
 8004ff8:	429e      	cmp	r6, r3
 8004ffa:	bf88      	it	hi
 8004ffc:	f102 32ff 	addhi.w	r2, r2, #4294967295
 8005000:	1b9b      	subs	r3, r3, r6
 8005002:	4421      	add	r1, r4
 8005004:	46c4      	mov	ip, r8
 8005006:	0052      	lsls	r2, r2, #1
 8005008:	3f01      	subs	r7, #1
 800500a:	eb02 72d3 	add.w	r2, r2, r3, lsr #31
 800500e:	ea4f 0454 	mov.w	r4, r4, lsr #1
 8005012:	ea4f 0343 	mov.w	r3, r3, lsl #1
 8005016:	d1dd      	bne.n	8004fd4 <__ieee754_sqrt+0xc0>
 8005018:	4313      	orrs	r3, r2
 800501a:	d006      	beq.n	800502a <__ieee754_sqrt+0x116>
 800501c:	1c4c      	adds	r4, r1, #1
 800501e:	bf13      	iteet	ne
 8005020:	3101      	addne	r1, #1
 8005022:	3001      	addeq	r0, #1
 8005024:	4639      	moveq	r1, r7
 8005026:	f021 0101 	bicne.w	r1, r1, #1
 800502a:	1043      	asrs	r3, r0, #1
 800502c:	f103 537f 	add.w	r3, r3, #1069547520	; 0x3fc00000
 8005030:	0849      	lsrs	r1, r1, #1
 8005032:	f503 1300 	add.w	r3, r3, #2097152	; 0x200000
 8005036:	07c2      	lsls	r2, r0, #31
 8005038:	bf48      	it	mi
 800503a:	f041 4100 	orrmi.w	r1, r1, #2147483648	; 0x80000000
 800503e:	eb03 5705 	add.w	r7, r3, r5, lsl #20
 8005042:	460c      	mov	r4, r1
 8005044:	463d      	mov	r5, r7
 8005046:	e77f      	b.n	8004f48 <__ieee754_sqrt+0x34>
 8005048:	0ada      	lsrs	r2, r3, #11
 800504a:	3815      	subs	r0, #21
 800504c:	055b      	lsls	r3, r3, #21
 800504e:	2a00      	cmp	r2, #0
 8005050:	d0fa      	beq.n	8005048 <__ieee754_sqrt+0x134>
 8005052:	02d7      	lsls	r7, r2, #11
 8005054:	d50a      	bpl.n	800506c <__ieee754_sqrt+0x158>
 8005056:	f1c1 0420 	rsb	r4, r1, #32
 800505a:	fa23 f404 	lsr.w	r4, r3, r4
 800505e:	1e4d      	subs	r5, r1, #1
 8005060:	408b      	lsls	r3, r1
 8005062:	4322      	orrs	r2, r4
 8005064:	1b41      	subs	r1, r0, r5
 8005066:	e788      	b.n	8004f7a <__ieee754_sqrt+0x66>
 8005068:	4608      	mov	r0, r1
 800506a:	e7f0      	b.n	800504e <__ieee754_sqrt+0x13a>
 800506c:	0052      	lsls	r2, r2, #1
 800506e:	3101      	adds	r1, #1
 8005070:	e7ef      	b.n	8005052 <__ieee754_sqrt+0x13e>
 8005072:	46e0      	mov	r8, ip
 8005074:	e7be      	b.n	8004ff4 <__ieee754_sqrt+0xe0>
 8005076:	bf00      	nop
 8005078:	7ff00000 	.word	0x7ff00000

0800507c <fabs>:
 800507c:	ec51 0b10 	vmov	r0, r1, d0
 8005080:	ee10 2a10 	vmov	r2, s0
 8005084:	f021 4300 	bic.w	r3, r1, #2147483648	; 0x80000000
 8005088:	ec43 2b10 	vmov	d0, r2, r3
 800508c:	4770      	bx	lr

0800508e <finite>:
 800508e:	b082      	sub	sp, #8
 8005090:	ed8d 0b00 	vstr	d0, [sp]
 8005094:	9801      	ldr	r0, [sp, #4]
 8005096:	f040 4000 	orr.w	r0, r0, #2147483648	; 0x80000000
 800509a:	f500 1080 	add.w	r0, r0, #1048576	; 0x100000
 800509e:	0fc0      	lsrs	r0, r0, #31
 80050a0:	b002      	add	sp, #8
 80050a2:	4770      	bx	lr
 80050a4:	0000      	movs	r0, r0
	...

080050a8 <nan>:
 80050a8:	ed9f 0b01 	vldr	d0, [pc, #4]	; 80050b0 <nan+0x8>
 80050ac:	4770      	bx	lr
 80050ae:	bf00      	nop
 80050b0:	00000000 	.word	0x00000000
 80050b4:	7ff80000 	.word	0x7ff80000

080050b8 <rint>:
 80050b8:	b5f7      	push	{r0, r1, r2, r4, r5, r6, r7, lr}
 80050ba:	ec51 0b10 	vmov	r0, r1, d0
 80050be:	f3c1 520a 	ubfx	r2, r1, #20, #11
 80050c2:	f2a2 36ff 	subw	r6, r2, #1023	; 0x3ff
 80050c6:	2e13      	cmp	r6, #19
 80050c8:	ee10 4a10 	vmov	r4, s0
 80050cc:	460b      	mov	r3, r1
 80050ce:	ea4f 75d1 	mov.w	r5, r1, lsr #31
 80050d2:	dc58      	bgt.n	8005186 <rint+0xce>
 80050d4:	2e00      	cmp	r6, #0
 80050d6:	da2b      	bge.n	8005130 <rint+0x78>
 80050d8:	f021 4200 	bic.w	r2, r1, #2147483648	; 0x80000000
 80050dc:	4302      	orrs	r2, r0
 80050de:	d023      	beq.n	8005128 <rint+0x70>
 80050e0:	f3c1 0213 	ubfx	r2, r1, #0, #20
 80050e4:	4302      	orrs	r2, r0
 80050e6:	4254      	negs	r4, r2
 80050e8:	4314      	orrs	r4, r2
 80050ea:	0c4b      	lsrs	r3, r1, #17
 80050ec:	0b24      	lsrs	r4, r4, #12
 80050ee:	045b      	lsls	r3, r3, #17
 80050f0:	f404 2400 	and.w	r4, r4, #524288	; 0x80000
 80050f4:	ea44 0103 	orr.w	r1, r4, r3
 80050f8:	4b32      	ldr	r3, [pc, #200]	; (80051c4 <rint+0x10c>)
 80050fa:	eb03 03c5 	add.w	r3, r3, r5, lsl #3
 80050fe:	e9d3 6700 	ldrd	r6, r7, [r3]
 8005102:	4602      	mov	r2, r0
 8005104:	460b      	mov	r3, r1
 8005106:	4630      	mov	r0, r6
 8005108:	4639      	mov	r1, r7
 800510a:	f7fb f8c7 	bl	800029c <__adddf3>
 800510e:	e9cd 0100 	strd	r0, r1, [sp]
 8005112:	463b      	mov	r3, r7
 8005114:	e9dd 0100 	ldrd	r0, r1, [sp]
 8005118:	4632      	mov	r2, r6
 800511a:	f7fb f8bd 	bl	8000298 <__aeabi_dsub>
 800511e:	f021 4300 	bic.w	r3, r1, #2147483648	; 0x80000000
 8005122:	ea43 77c5 	orr.w	r7, r3, r5, lsl #31
 8005126:	4639      	mov	r1, r7
 8005128:	ec41 0b10 	vmov	d0, r0, r1
 800512c:	b003      	add	sp, #12
 800512e:	bdf0      	pop	{r4, r5, r6, r7, pc}
 8005130:	4a25      	ldr	r2, [pc, #148]	; (80051c8 <rint+0x110>)
 8005132:	4132      	asrs	r2, r6
 8005134:	ea01 0702 	and.w	r7, r1, r2
 8005138:	4307      	orrs	r7, r0
 800513a:	d0f5      	beq.n	8005128 <rint+0x70>
 800513c:	0851      	lsrs	r1, r2, #1
 800513e:	ea03 0252 	and.w	r2, r3, r2, lsr #1
 8005142:	4314      	orrs	r4, r2
 8005144:	d00c      	beq.n	8005160 <rint+0xa8>
 8005146:	ea23 0201 	bic.w	r2, r3, r1
 800514a:	f44f 2380 	mov.w	r3, #262144	; 0x40000
 800514e:	2e13      	cmp	r6, #19
 8005150:	fa43 f606 	asr.w	r6, r3, r6
 8005154:	bf0c      	ite	eq
 8005156:	f04f 4400 	moveq.w	r4, #2147483648	; 0x80000000
 800515a:	2400      	movne	r4, #0
 800515c:	ea42 0306 	orr.w	r3, r2, r6
 8005160:	4918      	ldr	r1, [pc, #96]	; (80051c4 <rint+0x10c>)
 8005162:	eb01 05c5 	add.w	r5, r1, r5, lsl #3
 8005166:	4622      	mov	r2, r4
 8005168:	e9d5 4500 	ldrd	r4, r5, [r5]
 800516c:	4620      	mov	r0, r4
 800516e:	4629      	mov	r1, r5
 8005170:	f7fb f894 	bl	800029c <__adddf3>
 8005174:	e9cd 0100 	strd	r0, r1, [sp]
 8005178:	e9dd 0100 	ldrd	r0, r1, [sp]
 800517c:	4622      	mov	r2, r4
 800517e:	462b      	mov	r3, r5
 8005180:	f7fb f88a 	bl	8000298 <__aeabi_dsub>
 8005184:	e7d0      	b.n	8005128 <rint+0x70>
 8005186:	2e33      	cmp	r6, #51	; 0x33
 8005188:	dd07      	ble.n	800519a <rint+0xe2>
 800518a:	f5b6 6f80 	cmp.w	r6, #1024	; 0x400
 800518e:	d1cb      	bne.n	8005128 <rint+0x70>
 8005190:	ee10 2a10 	vmov	r2, s0
 8005194:	f7fb f882 	bl	800029c <__adddf3>
 8005198:	e7c6      	b.n	8005128 <rint+0x70>
 800519a:	f2a2 4213 	subw	r2, r2, #1043	; 0x413
 800519e:	f04f 36ff 	mov.w	r6, #4294967295
 80051a2:	40d6      	lsrs	r6, r2
 80051a4:	4230      	tst	r0, r6
 80051a6:	d0bf      	beq.n	8005128 <rint+0x70>
 80051a8:	ea14 0056 	ands.w	r0, r4, r6, lsr #1
 80051ac:	ea4f 0156 	mov.w	r1, r6, lsr #1
 80051b0:	bf1f      	itttt	ne
 80051b2:	ea24 0101 	bicne.w	r1, r4, r1
 80051b6:	f04f 4480 	movne.w	r4, #1073741824	; 0x40000000
 80051ba:	fa44 f202 	asrne.w	r2, r4, r2
 80051be:	ea41 0402 	orrne.w	r4, r1, r2
 80051c2:	e7cd      	b.n	8005160 <rint+0xa8>
 80051c4:	080060e0 	.word	0x080060e0
 80051c8:	000fffff 	.word	0x000fffff
 80051cc:	00000000 	.word	0x00000000

080051d0 <scalbn>:
 80051d0:	b570      	push	{r4, r5, r6, lr}
 80051d2:	ec55 4b10 	vmov	r4, r5, d0
 80051d6:	f3c5 520a 	ubfx	r2, r5, #20, #11
 80051da:	4606      	mov	r6, r0
 80051dc:	462b      	mov	r3, r5
 80051de:	b99a      	cbnz	r2, 8005208 <scalbn+0x38>
 80051e0:	f025 4300 	bic.w	r3, r5, #2147483648	; 0x80000000
 80051e4:	4323      	orrs	r3, r4
 80051e6:	d036      	beq.n	8005256 <scalbn+0x86>
 80051e8:	4b39      	ldr	r3, [pc, #228]	; (80052d0 <scalbn+0x100>)
 80051ea:	4629      	mov	r1, r5
 80051ec:	ee10 0a10 	vmov	r0, s0
 80051f0:	2200      	movs	r2, #0
 80051f2:	f7fb fa09 	bl	8000608 <__aeabi_dmul>
 80051f6:	4b37      	ldr	r3, [pc, #220]	; (80052d4 <scalbn+0x104>)
 80051f8:	429e      	cmp	r6, r3
 80051fa:	4604      	mov	r4, r0
 80051fc:	460d      	mov	r5, r1
 80051fe:	da10      	bge.n	8005222 <scalbn+0x52>
 8005200:	a32b      	add	r3, pc, #172	; (adr r3, 80052b0 <scalbn+0xe0>)
 8005202:	e9d3 2300 	ldrd	r2, r3, [r3]
 8005206:	e03a      	b.n	800527e <scalbn+0xae>
 8005208:	f240 71ff 	movw	r1, #2047	; 0x7ff
 800520c:	428a      	cmp	r2, r1
 800520e:	d10c      	bne.n	800522a <scalbn+0x5a>
 8005210:	ee10 2a10 	vmov	r2, s0
 8005214:	4620      	mov	r0, r4
 8005216:	4629      	mov	r1, r5
 8005218:	f7fb f840 	bl	800029c <__adddf3>
 800521c:	4604      	mov	r4, r0
 800521e:	460d      	mov	r5, r1
 8005220:	e019      	b.n	8005256 <scalbn+0x86>
 8005222:	f3c1 520a 	ubfx	r2, r1, #20, #11
 8005226:	460b      	mov	r3, r1
 8005228:	3a36      	subs	r2, #54	; 0x36
 800522a:	4432      	add	r2, r6
 800522c:	f240 71fe 	movw	r1, #2046	; 0x7fe
 8005230:	428a      	cmp	r2, r1
 8005232:	dd08      	ble.n	8005246 <scalbn+0x76>
 8005234:	2d00      	cmp	r5, #0
 8005236:	a120      	add	r1, pc, #128	; (adr r1, 80052b8 <scalbn+0xe8>)
 8005238:	e9d1 0100 	ldrd	r0, r1, [r1]
 800523c:	da1c      	bge.n	8005278 <scalbn+0xa8>
 800523e:	a120      	add	r1, pc, #128	; (adr r1, 80052c0 <scalbn+0xf0>)
 8005240:	e9d1 0100 	ldrd	r0, r1, [r1]
 8005244:	e018      	b.n	8005278 <scalbn+0xa8>
 8005246:	2a00      	cmp	r2, #0
 8005248:	dd08      	ble.n	800525c <scalbn+0x8c>
 800524a:	f023 43ff 	bic.w	r3, r3, #2139095040	; 0x7f800000
 800524e:	f423 03e0 	bic.w	r3, r3, #7340032	; 0x700000
 8005252:	ea43 5502 	orr.w	r5, r3, r2, lsl #20
 8005256:	ec45 4b10 	vmov	d0, r4, r5
 800525a:	bd70      	pop	{r4, r5, r6, pc}
 800525c:	f112 0f35 	cmn.w	r2, #53	; 0x35
 8005260:	da19      	bge.n	8005296 <scalbn+0xc6>
 8005262:	f24c 3350 	movw	r3, #50000	; 0xc350
 8005266:	429e      	cmp	r6, r3
 8005268:	f005 4300 	and.w	r3, r5, #2147483648	; 0x80000000
 800526c:	dd0a      	ble.n	8005284 <scalbn+0xb4>
 800526e:	a112      	add	r1, pc, #72	; (adr r1, 80052b8 <scalbn+0xe8>)
 8005270:	e9d1 0100 	ldrd	r0, r1, [r1]
 8005274:	2b00      	cmp	r3, #0
 8005276:	d1e2      	bne.n	800523e <scalbn+0x6e>
 8005278:	a30f      	add	r3, pc, #60	; (adr r3, 80052b8 <scalbn+0xe8>)
 800527a:	e9d3 2300 	ldrd	r2, r3, [r3]
 800527e:	f7fb f9c3 	bl	8000608 <__aeabi_dmul>
 8005282:	e7cb      	b.n	800521c <scalbn+0x4c>
 8005284:	a10a      	add	r1, pc, #40	; (adr r1, 80052b0 <scalbn+0xe0>)
 8005286:	e9d1 0100 	ldrd	r0, r1, [r1]
 800528a:	2b00      	cmp	r3, #0
 800528c:	d0b8      	beq.n	8005200 <scalbn+0x30>
 800528e:	a10e      	add	r1, pc, #56	; (adr r1, 80052c8 <scalbn+0xf8>)
 8005290:	e9d1 0100 	ldrd	r0, r1, [r1]
 8005294:	e7b4      	b.n	8005200 <scalbn+0x30>
 8005296:	f023 43ff 	bic.w	r3, r3, #2139095040	; 0x7f800000
 800529a:	3236      	adds	r2, #54	; 0x36
 800529c:	f423 03e0 	bic.w	r3, r3, #7340032	; 0x700000
 80052a0:	ea43 5102 	orr.w	r1, r3, r2, lsl #20
 80052a4:	4620      	mov	r0, r4
 80052a6:	4b0c      	ldr	r3, [pc, #48]	; (80052d8 <scalbn+0x108>)
 80052a8:	2200      	movs	r2, #0
 80052aa:	e7e8      	b.n	800527e <scalbn+0xae>
 80052ac:	f3af 8000 	nop.w
 80052b0:	c2f8f359 	.word	0xc2f8f359
 80052b4:	01a56e1f 	.word	0x01a56e1f
 80052b8:	8800759c 	.word	0x8800759c
 80052bc:	7e37e43c 	.word	0x7e37e43c
 80052c0:	8800759c 	.word	0x8800759c
 80052c4:	fe37e43c 	.word	0xfe37e43c
 80052c8:	c2f8f359 	.word	0xc2f8f359
 80052cc:	81a56e1f 	.word	0x81a56e1f
 80052d0:	43500000 	.word	0x43500000
 80052d4:	ffff3cb0 	.word	0xffff3cb0
 80052d8:	3c900000 	.word	0x3c900000

080052dc <abort>:
 80052dc:	b508      	push	{r3, lr}
 80052de:	2006      	movs	r0, #6
 80052e0:	f000 f92e 	bl	8005540 <raise>
 80052e4:	2001      	movs	r0, #1
 80052e6:	f7fe fa85 	bl	80037f4 <_exit>

080052ea <atexit>:
 80052ea:	2300      	movs	r3, #0
 80052ec:	4601      	mov	r1, r0
 80052ee:	461a      	mov	r2, r3
 80052f0:	4618      	mov	r0, r3
 80052f2:	f000 b999 	b.w	8005628 <__register_exitproc>
	...

080052f8 <__errno>:
 80052f8:	4b01      	ldr	r3, [pc, #4]	; (8005300 <__errno+0x8>)
 80052fa:	6818      	ldr	r0, [r3, #0]
 80052fc:	4770      	bx	lr
 80052fe:	bf00      	nop
 8005300:	20000014 	.word	0x20000014

08005304 <__libc_init_array>:
 8005304:	b570      	push	{r4, r5, r6, lr}
 8005306:	4d0d      	ldr	r5, [pc, #52]	; (800533c <__libc_init_array+0x38>)
 8005308:	4c0d      	ldr	r4, [pc, #52]	; (8005340 <__libc_init_array+0x3c>)
 800530a:	1b64      	subs	r4, r4, r5
 800530c:	10a4      	asrs	r4, r4, #2
 800530e:	2600      	movs	r6, #0
 8005310:	42a6      	cmp	r6, r4
 8005312:	d109      	bne.n	8005328 <__libc_init_array+0x24>
 8005314:	4d0b      	ldr	r5, [pc, #44]	; (8005344 <__libc_init_array+0x40>)
 8005316:	4c0c      	ldr	r4, [pc, #48]	; (8005348 <__libc_init_array+0x44>)
 8005318:	f000 fd3e 	bl	8005d98 <_init>
 800531c:	1b64      	subs	r4, r4, r5
 800531e:	10a4      	asrs	r4, r4, #2
 8005320:	2600      	movs	r6, #0
 8005322:	42a6      	cmp	r6, r4
 8005324:	d105      	bne.n	8005332 <__libc_init_array+0x2e>
 8005326:	bd70      	pop	{r4, r5, r6, pc}
 8005328:	f855 3b04 	ldr.w	r3, [r5], #4
 800532c:	4798      	blx	r3
 800532e:	3601      	adds	r6, #1
 8005330:	e7ee      	b.n	8005310 <__libc_init_array+0xc>
 8005332:	f855 3b04 	ldr.w	r3, [r5], #4
 8005336:	4798      	blx	r3
 8005338:	3601      	adds	r6, #1
 800533a:	e7f2      	b.n	8005322 <__libc_init_array+0x1e>
 800533c:	0800612c 	.word	0x0800612c
 8005340:	0800612c 	.word	0x0800612c
 8005344:	0800612c 	.word	0x0800612c
 8005348:	08006130 	.word	0x08006130

0800534c <malloc>:
 800534c:	4b02      	ldr	r3, [pc, #8]	; (8005358 <malloc+0xc>)
 800534e:	4601      	mov	r1, r0
 8005350:	6818      	ldr	r0, [r3, #0]
 8005352:	f000 b863 	b.w	800541c <_malloc_r>
 8005356:	bf00      	nop
 8005358:	20000014 	.word	0x20000014

0800535c <free>:
 800535c:	4b02      	ldr	r3, [pc, #8]	; (8005368 <free+0xc>)
 800535e:	4601      	mov	r1, r0
 8005360:	6818      	ldr	r0, [r3, #0]
 8005362:	f000 b80b 	b.w	800537c <_free_r>
 8005366:	bf00      	nop
 8005368:	20000014 	.word	0x20000014

0800536c <memset>:
 800536c:	4402      	add	r2, r0
 800536e:	4603      	mov	r3, r0
 8005370:	4293      	cmp	r3, r2
 8005372:	d100      	bne.n	8005376 <memset+0xa>
 8005374:	4770      	bx	lr
 8005376:	f803 1b01 	strb.w	r1, [r3], #1
 800537a:	e7f9      	b.n	8005370 <memset+0x4>

0800537c <_free_r>:
 800537c:	b537      	push	{r0, r1, r2, r4, r5, lr}
 800537e:	2900      	cmp	r1, #0
 8005380:	d048      	beq.n	8005414 <_free_r+0x98>
 8005382:	f851 3c04 	ldr.w	r3, [r1, #-4]
 8005386:	9001      	str	r0, [sp, #4]
 8005388:	2b00      	cmp	r3, #0
 800538a:	f1a1 0404 	sub.w	r4, r1, #4
 800538e:	bfb8      	it	lt
 8005390:	18e4      	addlt	r4, r4, r3
 8005392:	f000 f9af 	bl	80056f4 <__malloc_lock>
 8005396:	4a20      	ldr	r2, [pc, #128]	; (8005418 <_free_r+0x9c>)
 8005398:	9801      	ldr	r0, [sp, #4]
 800539a:	6813      	ldr	r3, [r2, #0]
 800539c:	4615      	mov	r5, r2
 800539e:	b933      	cbnz	r3, 80053ae <_free_r+0x32>
 80053a0:	6063      	str	r3, [r4, #4]
 80053a2:	6014      	str	r4, [r2, #0]
 80053a4:	b003      	add	sp, #12
 80053a6:	e8bd 4030 	ldmia.w	sp!, {r4, r5, lr}
 80053aa:	f000 b9a9 	b.w	8005700 <__malloc_unlock>
 80053ae:	42a3      	cmp	r3, r4
 80053b0:	d90b      	bls.n	80053ca <_free_r+0x4e>
 80053b2:	6821      	ldr	r1, [r4, #0]
 80053b4:	1862      	adds	r2, r4, r1
 80053b6:	4293      	cmp	r3, r2
 80053b8:	bf04      	itt	eq
 80053ba:	681a      	ldreq	r2, [r3, #0]
 80053bc:	685b      	ldreq	r3, [r3, #4]
 80053be:	6063      	str	r3, [r4, #4]
 80053c0:	bf04      	itt	eq
 80053c2:	1852      	addeq	r2, r2, r1
 80053c4:	6022      	streq	r2, [r4, #0]
 80053c6:	602c      	str	r4, [r5, #0]
 80053c8:	e7ec      	b.n	80053a4 <_free_r+0x28>
 80053ca:	461a      	mov	r2, r3
 80053cc:	685b      	ldr	r3, [r3, #4]
 80053ce:	b10b      	cbz	r3, 80053d4 <_free_r+0x58>
 80053d0:	42a3      	cmp	r3, r4
 80053d2:	d9fa      	bls.n	80053ca <_free_r+0x4e>
 80053d4:	6811      	ldr	r1, [r2, #0]
 80053d6:	1855      	adds	r5, r2, r1
 80053d8:	42a5      	cmp	r5, r4
 80053da:	d10b      	bne.n	80053f4 <_free_r+0x78>
 80053dc:	6824      	ldr	r4, [r4, #0]
 80053de:	4421      	add	r1, r4
 80053e0:	1854      	adds	r4, r2, r1
 80053e2:	42a3      	cmp	r3, r4
 80053e4:	6011      	str	r1, [r2, #0]
 80053e6:	d1dd      	bne.n	80053a4 <_free_r+0x28>
 80053e8:	681c      	ldr	r4, [r3, #0]
 80053ea:	685b      	ldr	r3, [r3, #4]
 80053ec:	6053      	str	r3, [r2, #4]
 80053ee:	4421      	add	r1, r4
 80053f0:	6011      	str	r1, [r2, #0]
 80053f2:	e7d7      	b.n	80053a4 <_free_r+0x28>
 80053f4:	d902      	bls.n	80053fc <_free_r+0x80>
 80053f6:	230c      	movs	r3, #12
 80053f8:	6003      	str	r3, [r0, #0]
 80053fa:	e7d3      	b.n	80053a4 <_free_r+0x28>
 80053fc:	6825      	ldr	r5, [r4, #0]
 80053fe:	1961      	adds	r1, r4, r5
 8005400:	428b      	cmp	r3, r1
 8005402:	bf04      	itt	eq
 8005404:	6819      	ldreq	r1, [r3, #0]
 8005406:	685b      	ldreq	r3, [r3, #4]
 8005408:	6063      	str	r3, [r4, #4]
 800540a:	bf04      	itt	eq
 800540c:	1949      	addeq	r1, r1, r5
 800540e:	6021      	streq	r1, [r4, #0]
 8005410:	6054      	str	r4, [r2, #4]
 8005412:	e7c7      	b.n	80053a4 <_free_r+0x28>
 8005414:	b003      	add	sp, #12
 8005416:	bd30      	pop	{r4, r5, pc}
 8005418:	20002bc0 	.word	0x20002bc0

0800541c <_malloc_r>:
 800541c:	b5f8      	push	{r3, r4, r5, r6, r7, lr}
 800541e:	1ccd      	adds	r5, r1, #3
 8005420:	f025 0503 	bic.w	r5, r5, #3
 8005424:	3508      	adds	r5, #8
 8005426:	2d0c      	cmp	r5, #12
 8005428:	bf38      	it	cc
 800542a:	250c      	movcc	r5, #12
 800542c:	2d00      	cmp	r5, #0
 800542e:	4606      	mov	r6, r0
 8005430:	db01      	blt.n	8005436 <_malloc_r+0x1a>
 8005432:	42a9      	cmp	r1, r5
 8005434:	d903      	bls.n	800543e <_malloc_r+0x22>
 8005436:	230c      	movs	r3, #12
 8005438:	6033      	str	r3, [r6, #0]
 800543a:	2000      	movs	r0, #0
 800543c:	bdf8      	pop	{r3, r4, r5, r6, r7, pc}
 800543e:	f000 f959 	bl	80056f4 <__malloc_lock>
 8005442:	4921      	ldr	r1, [pc, #132]	; (80054c8 <_malloc_r+0xac>)
 8005444:	680a      	ldr	r2, [r1, #0]
 8005446:	4614      	mov	r4, r2
 8005448:	b99c      	cbnz	r4, 8005472 <_malloc_r+0x56>
 800544a:	4f20      	ldr	r7, [pc, #128]	; (80054cc <_malloc_r+0xb0>)
 800544c:	683b      	ldr	r3, [r7, #0]
 800544e:	b923      	cbnz	r3, 800545a <_malloc_r+0x3e>
 8005450:	4621      	mov	r1, r4
 8005452:	4630      	mov	r0, r6
 8005454:	f000 f83c 	bl	80054d0 <_sbrk_r>
 8005458:	6038      	str	r0, [r7, #0]
 800545a:	4629      	mov	r1, r5
 800545c:	4630      	mov	r0, r6
 800545e:	f000 f837 	bl	80054d0 <_sbrk_r>
 8005462:	1c43      	adds	r3, r0, #1
 8005464:	d123      	bne.n	80054ae <_malloc_r+0x92>
 8005466:	230c      	movs	r3, #12
 8005468:	6033      	str	r3, [r6, #0]
 800546a:	4630      	mov	r0, r6
 800546c:	f000 f948 	bl	8005700 <__malloc_unlock>
 8005470:	e7e3      	b.n	800543a <_malloc_r+0x1e>
 8005472:	6823      	ldr	r3, [r4, #0]
 8005474:	1b5b      	subs	r3, r3, r5
 8005476:	d417      	bmi.n	80054a8 <_malloc_r+0x8c>
 8005478:	2b0b      	cmp	r3, #11
 800547a:	d903      	bls.n	8005484 <_malloc_r+0x68>
 800547c:	6023      	str	r3, [r4, #0]
 800547e:	441c      	add	r4, r3
 8005480:	6025      	str	r5, [r4, #0]
 8005482:	e004      	b.n	800548e <_malloc_r+0x72>
 8005484:	6863      	ldr	r3, [r4, #4]
 8005486:	42a2      	cmp	r2, r4
 8005488:	bf0c      	ite	eq
 800548a:	600b      	streq	r3, [r1, #0]
 800548c:	6053      	strne	r3, [r2, #4]
 800548e:	4630      	mov	r0, r6
 8005490:	f000 f936 	bl	8005700 <__malloc_unlock>
 8005494:	f104 000b 	add.w	r0, r4, #11
 8005498:	1d23      	adds	r3, r4, #4
 800549a:	f020 0007 	bic.w	r0, r0, #7
 800549e:	1ac2      	subs	r2, r0, r3
 80054a0:	d0cc      	beq.n	800543c <_malloc_r+0x20>
 80054a2:	1a1b      	subs	r3, r3, r0
 80054a4:	50a3      	str	r3, [r4, r2]
 80054a6:	e7c9      	b.n	800543c <_malloc_r+0x20>
 80054a8:	4622      	mov	r2, r4
 80054aa:	6864      	ldr	r4, [r4, #4]
 80054ac:	e7cc      	b.n	8005448 <_malloc_r+0x2c>
 80054ae:	1cc4      	adds	r4, r0, #3
 80054b0:	f024 0403 	bic.w	r4, r4, #3
 80054b4:	42a0      	cmp	r0, r4
 80054b6:	d0e3      	beq.n	8005480 <_malloc_r+0x64>
 80054b8:	1a21      	subs	r1, r4, r0
 80054ba:	4630      	mov	r0, r6
 80054bc:	f000 f808 	bl	80054d0 <_sbrk_r>
 80054c0:	3001      	adds	r0, #1
 80054c2:	d1dd      	bne.n	8005480 <_malloc_r+0x64>
 80054c4:	e7cf      	b.n	8005466 <_malloc_r+0x4a>
 80054c6:	bf00      	nop
 80054c8:	20002bc0 	.word	0x20002bc0
 80054cc:	20002bc4 	.word	0x20002bc4

080054d0 <_sbrk_r>:
 80054d0:	b538      	push	{r3, r4, r5, lr}
 80054d2:	4d06      	ldr	r5, [pc, #24]	; (80054ec <_sbrk_r+0x1c>)
 80054d4:	2300      	movs	r3, #0
 80054d6:	4604      	mov	r4, r0
 80054d8:	4608      	mov	r0, r1
 80054da:	602b      	str	r3, [r5, #0]
 80054dc:	f7fe f990 	bl	8003800 <_sbrk>
 80054e0:	1c43      	adds	r3, r0, #1
 80054e2:	d102      	bne.n	80054ea <_sbrk_r+0x1a>
 80054e4:	682b      	ldr	r3, [r5, #0]
 80054e6:	b103      	cbz	r3, 80054ea <_sbrk_r+0x1a>
 80054e8:	6023      	str	r3, [r4, #0]
 80054ea:	bd38      	pop	{r3, r4, r5, pc}
 80054ec:	20002c68 	.word	0x20002c68

080054f0 <_raise_r>:
 80054f0:	291f      	cmp	r1, #31
 80054f2:	b538      	push	{r3, r4, r5, lr}
 80054f4:	4604      	mov	r4, r0
 80054f6:	460d      	mov	r5, r1
 80054f8:	d904      	bls.n	8005504 <_raise_r+0x14>
 80054fa:	2316      	movs	r3, #22
 80054fc:	6003      	str	r3, [r0, #0]
 80054fe:	f04f 30ff 	mov.w	r0, #4294967295
 8005502:	bd38      	pop	{r3, r4, r5, pc}
 8005504:	6c42      	ldr	r2, [r0, #68]	; 0x44
 8005506:	b112      	cbz	r2, 800550e <_raise_r+0x1e>
 8005508:	f852 3021 	ldr.w	r3, [r2, r1, lsl #2]
 800550c:	b94b      	cbnz	r3, 8005522 <_raise_r+0x32>
 800550e:	4620      	mov	r0, r4
 8005510:	f000 f830 	bl	8005574 <_getpid_r>
 8005514:	462a      	mov	r2, r5
 8005516:	4601      	mov	r1, r0
 8005518:	4620      	mov	r0, r4
 800551a:	e8bd 4038 	ldmia.w	sp!, {r3, r4, r5, lr}
 800551e:	f000 b817 	b.w	8005550 <_kill_r>
 8005522:	2b01      	cmp	r3, #1
 8005524:	d00a      	beq.n	800553c <_raise_r+0x4c>
 8005526:	1c59      	adds	r1, r3, #1
 8005528:	d103      	bne.n	8005532 <_raise_r+0x42>
 800552a:	2316      	movs	r3, #22
 800552c:	6003      	str	r3, [r0, #0]
 800552e:	2001      	movs	r0, #1
 8005530:	e7e7      	b.n	8005502 <_raise_r+0x12>
 8005532:	2400      	movs	r4, #0
 8005534:	f842 4025 	str.w	r4, [r2, r5, lsl #2]
 8005538:	4628      	mov	r0, r5
 800553a:	4798      	blx	r3
 800553c:	2000      	movs	r0, #0
 800553e:	e7e0      	b.n	8005502 <_raise_r+0x12>

08005540 <raise>:
 8005540:	4b02      	ldr	r3, [pc, #8]	; (800554c <raise+0xc>)
 8005542:	4601      	mov	r1, r0
 8005544:	6818      	ldr	r0, [r3, #0]
 8005546:	f7ff bfd3 	b.w	80054f0 <_raise_r>
 800554a:	bf00      	nop
 800554c:	20000014 	.word	0x20000014

08005550 <_kill_r>:
 8005550:	b538      	push	{r3, r4, r5, lr}
 8005552:	4d07      	ldr	r5, [pc, #28]	; (8005570 <_kill_r+0x20>)
 8005554:	2300      	movs	r3, #0
 8005556:	4604      	mov	r4, r0
 8005558:	4608      	mov	r0, r1
 800555a:	4611      	mov	r1, r2
 800555c:	602b      	str	r3, [r5, #0]
 800555e:	f7fe f941 	bl	80037e4 <_kill>
 8005562:	1c43      	adds	r3, r0, #1
 8005564:	d102      	bne.n	800556c <_kill_r+0x1c>
 8005566:	682b      	ldr	r3, [r5, #0]
 8005568:	b103      	cbz	r3, 800556c <_kill_r+0x1c>
 800556a:	6023      	str	r3, [r4, #0]
 800556c:	bd38      	pop	{r3, r4, r5, pc}
 800556e:	bf00      	nop
 8005570:	20002c68 	.word	0x20002c68

08005574 <_getpid_r>:
 8005574:	f7fe b934 	b.w	80037e0 <_getpid>

08005578 <siprintf>:
 8005578:	b40e      	push	{r1, r2, r3}
 800557a:	b500      	push	{lr}
 800557c:	b09c      	sub	sp, #112	; 0x70
 800557e:	ab1d      	add	r3, sp, #116	; 0x74
 8005580:	9002      	str	r0, [sp, #8]
 8005582:	9006      	str	r0, [sp, #24]
 8005584:	f06f 4100 	mvn.w	r1, #2147483648	; 0x80000000
 8005588:	4809      	ldr	r0, [pc, #36]	; (80055b0 <siprintf+0x38>)
 800558a:	9107      	str	r1, [sp, #28]
 800558c:	9104      	str	r1, [sp, #16]
 800558e:	4909      	ldr	r1, [pc, #36]	; (80055b4 <siprintf+0x3c>)
 8005590:	f853 2b04 	ldr.w	r2, [r3], #4
 8005594:	9105      	str	r1, [sp, #20]
 8005596:	6800      	ldr	r0, [r0, #0]
 8005598:	9301      	str	r3, [sp, #4]
 800559a:	a902      	add	r1, sp, #8
 800559c:	f000 f912 	bl	80057c4 <_svfiprintf_r>
 80055a0:	9b02      	ldr	r3, [sp, #8]
 80055a2:	2200      	movs	r2, #0
 80055a4:	701a      	strb	r2, [r3, #0]
 80055a6:	b01c      	add	sp, #112	; 0x70
 80055a8:	f85d eb04 	ldr.w	lr, [sp], #4
 80055ac:	b003      	add	sp, #12
 80055ae:	4770      	bx	lr
 80055b0:	20000014 	.word	0x20000014
 80055b4:	ffff0208 	.word	0xffff0208

080055b8 <strstr>:
 80055b8:	b5f0      	push	{r4, r5, r6, r7, lr}
 80055ba:	780c      	ldrb	r4, [r1, #0]
 80055bc:	b164      	cbz	r4, 80055d8 <strstr+0x20>
 80055be:	4603      	mov	r3, r0
 80055c0:	781a      	ldrb	r2, [r3, #0]
 80055c2:	4618      	mov	r0, r3
 80055c4:	1c5e      	adds	r6, r3, #1
 80055c6:	b90a      	cbnz	r2, 80055cc <strstr+0x14>
 80055c8:	4610      	mov	r0, r2
 80055ca:	e005      	b.n	80055d8 <strstr+0x20>
 80055cc:	4294      	cmp	r4, r2
 80055ce:	d108      	bne.n	80055e2 <strstr+0x2a>
 80055d0:	460d      	mov	r5, r1
 80055d2:	f815 2f01 	ldrb.w	r2, [r5, #1]!
 80055d6:	b902      	cbnz	r2, 80055da <strstr+0x22>
 80055d8:	bdf0      	pop	{r4, r5, r6, r7, pc}
 80055da:	f813 7f01 	ldrb.w	r7, [r3, #1]!
 80055de:	4297      	cmp	r7, r2
 80055e0:	d0f7      	beq.n	80055d2 <strstr+0x1a>
 80055e2:	4633      	mov	r3, r6
 80055e4:	e7ec      	b.n	80055c0 <strstr+0x8>
	...

080055e8 <_vsiprintf_r>:
 80055e8:	b500      	push	{lr}
 80055ea:	b09b      	sub	sp, #108	; 0x6c
 80055ec:	9100      	str	r1, [sp, #0]
 80055ee:	9104      	str	r1, [sp, #16]
 80055f0:	f06f 4100 	mvn.w	r1, #2147483648	; 0x80000000
 80055f4:	9105      	str	r1, [sp, #20]
 80055f6:	9102      	str	r1, [sp, #8]
 80055f8:	4905      	ldr	r1, [pc, #20]	; (8005610 <_vsiprintf_r+0x28>)
 80055fa:	9103      	str	r1, [sp, #12]
 80055fc:	4669      	mov	r1, sp
 80055fe:	f000 f8e1 	bl	80057c4 <_svfiprintf_r>
 8005602:	9b00      	ldr	r3, [sp, #0]
 8005604:	2200      	movs	r2, #0
 8005606:	701a      	strb	r2, [r3, #0]
 8005608:	b01b      	add	sp, #108	; 0x6c
 800560a:	f85d fb04 	ldr.w	pc, [sp], #4
 800560e:	bf00      	nop
 8005610:	ffff0208 	.word	0xffff0208

08005614 <vsiprintf>:
 8005614:	4613      	mov	r3, r2
 8005616:	460a      	mov	r2, r1
 8005618:	4601      	mov	r1, r0
 800561a:	4802      	ldr	r0, [pc, #8]	; (8005624 <vsiprintf+0x10>)
 800561c:	6800      	ldr	r0, [r0, #0]
 800561e:	f7ff bfe3 	b.w	80055e8 <_vsiprintf_r>
 8005622:	bf00      	nop
 8005624:	20000014 	.word	0x20000014

08005628 <__register_exitproc>:
 8005628:	e92d 43f8 	stmdb	sp!, {r3, r4, r5, r6, r7, r8, r9, lr}
 800562c:	f8df 80b8 	ldr.w	r8, [pc, #184]	; 80056e8 <__register_exitproc+0xc0>
 8005630:	4606      	mov	r6, r0
 8005632:	f8d8 0000 	ldr.w	r0, [r8]
 8005636:	461f      	mov	r7, r3
 8005638:	460d      	mov	r5, r1
 800563a:	4691      	mov	r9, r2
 800563c:	f000 f856 	bl	80056ec <__retarget_lock_acquire_recursive>
 8005640:	4b25      	ldr	r3, [pc, #148]	; (80056d8 <__register_exitproc+0xb0>)
 8005642:	681c      	ldr	r4, [r3, #0]
 8005644:	b934      	cbnz	r4, 8005654 <__register_exitproc+0x2c>
 8005646:	4c25      	ldr	r4, [pc, #148]	; (80056dc <__register_exitproc+0xb4>)
 8005648:	601c      	str	r4, [r3, #0]
 800564a:	4b25      	ldr	r3, [pc, #148]	; (80056e0 <__register_exitproc+0xb8>)
 800564c:	b113      	cbz	r3, 8005654 <__register_exitproc+0x2c>
 800564e:	681b      	ldr	r3, [r3, #0]
 8005650:	f8c4 3088 	str.w	r3, [r4, #136]	; 0x88
 8005654:	6863      	ldr	r3, [r4, #4]
 8005656:	2b1f      	cmp	r3, #31
 8005658:	dd07      	ble.n	800566a <__register_exitproc+0x42>
 800565a:	f8d8 0000 	ldr.w	r0, [r8]
 800565e:	f000 f847 	bl	80056f0 <__retarget_lock_release_recursive>
 8005662:	f04f 30ff 	mov.w	r0, #4294967295
 8005666:	e8bd 83f8 	ldmia.w	sp!, {r3, r4, r5, r6, r7, r8, r9, pc}
 800566a:	b34e      	cbz	r6, 80056c0 <__register_exitproc+0x98>
 800566c:	f8d4 0088 	ldr.w	r0, [r4, #136]	; 0x88
 8005670:	b988      	cbnz	r0, 8005696 <__register_exitproc+0x6e>
 8005672:	4b1c      	ldr	r3, [pc, #112]	; (80056e4 <__register_exitproc+0xbc>)
 8005674:	b923      	cbnz	r3, 8005680 <__register_exitproc+0x58>
 8005676:	f8d8 0000 	ldr.w	r0, [r8]
 800567a:	f000 f838 	bl	80056ee <__retarget_lock_release>
 800567e:	e7f0      	b.n	8005662 <__register_exitproc+0x3a>
 8005680:	f44f 7084 	mov.w	r0, #264	; 0x108
 8005684:	f7ff fe62 	bl	800534c <malloc>
 8005688:	2800      	cmp	r0, #0
 800568a:	d0f4      	beq.n	8005676 <__register_exitproc+0x4e>
 800568c:	2300      	movs	r3, #0
 800568e:	e9c0 3340 	strd	r3, r3, [r0, #256]	; 0x100
 8005692:	f8c4 0088 	str.w	r0, [r4, #136]	; 0x88
 8005696:	6863      	ldr	r3, [r4, #4]
 8005698:	f840 9023 	str.w	r9, [r0, r3, lsl #2]
 800569c:	2201      	movs	r2, #1
 800569e:	409a      	lsls	r2, r3
 80056a0:	eb00 0183 	add.w	r1, r0, r3, lsl #2
 80056a4:	f8d0 3100 	ldr.w	r3, [r0, #256]	; 0x100
 80056a8:	4313      	orrs	r3, r2
 80056aa:	2e02      	cmp	r6, #2
 80056ac:	f8c0 3100 	str.w	r3, [r0, #256]	; 0x100
 80056b0:	f8c1 7080 	str.w	r7, [r1, #128]	; 0x80
 80056b4:	bf02      	ittt	eq
 80056b6:	f8d0 3104 	ldreq.w	r3, [r0, #260]	; 0x104
 80056ba:	431a      	orreq	r2, r3
 80056bc:	f8c0 2104 	streq.w	r2, [r0, #260]	; 0x104
 80056c0:	6863      	ldr	r3, [r4, #4]
 80056c2:	f8d8 0000 	ldr.w	r0, [r8]
 80056c6:	1c5a      	adds	r2, r3, #1
 80056c8:	3302      	adds	r3, #2
 80056ca:	6062      	str	r2, [r4, #4]
 80056cc:	f844 5023 	str.w	r5, [r4, r3, lsl #2]
 80056d0:	f000 f80e 	bl	80056f0 <__retarget_lock_release_recursive>
 80056d4:	2000      	movs	r0, #0
 80056d6:	e7c6      	b.n	8005666 <__register_exitproc+0x3e>
 80056d8:	20002c54 	.word	0x20002c54
 80056dc:	20002bc8 	.word	0x20002bc8
 80056e0:	00000000 	.word	0x00000000
 80056e4:	0800534d 	.word	0x0800534d
 80056e8:	20000078 	.word	0x20000078

080056ec <__retarget_lock_acquire_recursive>:
 80056ec:	4770      	bx	lr

080056ee <__retarget_lock_release>:
 80056ee:	4770      	bx	lr

080056f0 <__retarget_lock_release_recursive>:
 80056f0:	4770      	bx	lr
	...

080056f4 <__malloc_lock>:
 80056f4:	4801      	ldr	r0, [pc, #4]	; (80056fc <__malloc_lock+0x8>)
 80056f6:	f7ff bff9 	b.w	80056ec <__retarget_lock_acquire_recursive>
 80056fa:	bf00      	nop
 80056fc:	20002c60 	.word	0x20002c60

08005700 <__malloc_unlock>:
 8005700:	4801      	ldr	r0, [pc, #4]	; (8005708 <__malloc_unlock+0x8>)
 8005702:	f7ff bff5 	b.w	80056f0 <__retarget_lock_release_recursive>
 8005706:	bf00      	nop
 8005708:	20002c60 	.word	0x20002c60

0800570c <__ssputs_r>:
 800570c:	e92d 47f0 	stmdb	sp!, {r4, r5, r6, r7, r8, r9, sl, lr}
 8005710:	688e      	ldr	r6, [r1, #8]
 8005712:	429e      	cmp	r6, r3
 8005714:	4682      	mov	sl, r0
 8005716:	460c      	mov	r4, r1
 8005718:	4690      	mov	r8, r2
 800571a:	461f      	mov	r7, r3
 800571c:	d838      	bhi.n	8005790 <__ssputs_r+0x84>
 800571e:	898a      	ldrh	r2, [r1, #12]
 8005720:	f412 6f90 	tst.w	r2, #1152	; 0x480
 8005724:	d032      	beq.n	800578c <__ssputs_r+0x80>
 8005726:	6825      	ldr	r5, [r4, #0]
 8005728:	6909      	ldr	r1, [r1, #16]
 800572a:	eba5 0901 	sub.w	r9, r5, r1
 800572e:	6965      	ldr	r5, [r4, #20]
 8005730:	eb05 0545 	add.w	r5, r5, r5, lsl #1
 8005734:	eb05 75d5 	add.w	r5, r5, r5, lsr #31
 8005738:	3301      	adds	r3, #1
 800573a:	444b      	add	r3, r9
 800573c:	106d      	asrs	r5, r5, #1
 800573e:	429d      	cmp	r5, r3
 8005740:	bf38      	it	cc
 8005742:	461d      	movcc	r5, r3
 8005744:	0553      	lsls	r3, r2, #21
 8005746:	d531      	bpl.n	80057ac <__ssputs_r+0xa0>
 8005748:	4629      	mov	r1, r5
 800574a:	f7ff fe67 	bl	800541c <_malloc_r>
 800574e:	4606      	mov	r6, r0
 8005750:	b950      	cbnz	r0, 8005768 <__ssputs_r+0x5c>
 8005752:	230c      	movs	r3, #12
 8005754:	f8ca 3000 	str.w	r3, [sl]
 8005758:	89a3      	ldrh	r3, [r4, #12]
 800575a:	f043 0340 	orr.w	r3, r3, #64	; 0x40
 800575e:	81a3      	strh	r3, [r4, #12]
 8005760:	f04f 30ff 	mov.w	r0, #4294967295
 8005764:	e8bd 87f0 	ldmia.w	sp!, {r4, r5, r6, r7, r8, r9, sl, pc}
 8005768:	6921      	ldr	r1, [r4, #16]
 800576a:	464a      	mov	r2, r9
 800576c:	f000 fabe 	bl	8005cec <memcpy>
 8005770:	89a3      	ldrh	r3, [r4, #12]
 8005772:	f423 6390 	bic.w	r3, r3, #1152	; 0x480
 8005776:	f043 0380 	orr.w	r3, r3, #128	; 0x80
 800577a:	81a3      	strh	r3, [r4, #12]
 800577c:	6126      	str	r6, [r4, #16]
 800577e:	6165      	str	r5, [r4, #20]
 8005780:	444e      	add	r6, r9
 8005782:	eba5 0509 	sub.w	r5, r5, r9
 8005786:	6026      	str	r6, [r4, #0]
 8005788:	60a5      	str	r5, [r4, #8]
 800578a:	463e      	mov	r6, r7
 800578c:	42be      	cmp	r6, r7
 800578e:	d900      	bls.n	8005792 <__ssputs_r+0x86>
 8005790:	463e      	mov	r6, r7
 8005792:	4632      	mov	r2, r6
 8005794:	6820      	ldr	r0, [r4, #0]
 8005796:	4641      	mov	r1, r8
 8005798:	f000 fab6 	bl	8005d08 <memmove>
 800579c:	68a3      	ldr	r3, [r4, #8]
 800579e:	6822      	ldr	r2, [r4, #0]
 80057a0:	1b9b      	subs	r3, r3, r6
 80057a2:	4432      	add	r2, r6
 80057a4:	60a3      	str	r3, [r4, #8]
 80057a6:	6022      	str	r2, [r4, #0]
 80057a8:	2000      	movs	r0, #0
 80057aa:	e7db      	b.n	8005764 <__ssputs_r+0x58>
 80057ac:	462a      	mov	r2, r5
 80057ae:	f000 fac5 	bl	8005d3c <_realloc_r>
 80057b2:	4606      	mov	r6, r0
 80057b4:	2800      	cmp	r0, #0
 80057b6:	d1e1      	bne.n	800577c <__ssputs_r+0x70>
 80057b8:	6921      	ldr	r1, [r4, #16]
 80057ba:	4650      	mov	r0, sl
 80057bc:	f7ff fdde 	bl	800537c <_free_r>
 80057c0:	e7c7      	b.n	8005752 <__ssputs_r+0x46>
	...

080057c4 <_svfiprintf_r>:
 80057c4:	e92d 4ff0 	stmdb	sp!, {r4, r5, r6, r7, r8, r9, sl, fp, lr}
 80057c8:	4698      	mov	r8, r3
 80057ca:	898b      	ldrh	r3, [r1, #12]
 80057cc:	061b      	lsls	r3, r3, #24
 80057ce:	b09d      	sub	sp, #116	; 0x74
 80057d0:	4607      	mov	r7, r0
 80057d2:	460d      	mov	r5, r1
 80057d4:	4614      	mov	r4, r2
 80057d6:	d50e      	bpl.n	80057f6 <_svfiprintf_r+0x32>
 80057d8:	690b      	ldr	r3, [r1, #16]
 80057da:	b963      	cbnz	r3, 80057f6 <_svfiprintf_r+0x32>
 80057dc:	2140      	movs	r1, #64	; 0x40
 80057de:	f7ff fe1d 	bl	800541c <_malloc_r>
 80057e2:	6028      	str	r0, [r5, #0]
 80057e4:	6128      	str	r0, [r5, #16]
 80057e6:	b920      	cbnz	r0, 80057f2 <_svfiprintf_r+0x2e>
 80057e8:	230c      	movs	r3, #12
 80057ea:	603b      	str	r3, [r7, #0]
 80057ec:	f04f 30ff 	mov.w	r0, #4294967295
 80057f0:	e0d1      	b.n	8005996 <_svfiprintf_r+0x1d2>
 80057f2:	2340      	movs	r3, #64	; 0x40
 80057f4:	616b      	str	r3, [r5, #20]
 80057f6:	2300      	movs	r3, #0
 80057f8:	9309      	str	r3, [sp, #36]	; 0x24
 80057fa:	2320      	movs	r3, #32
 80057fc:	f88d 3029 	strb.w	r3, [sp, #41]	; 0x29
 8005800:	f8cd 800c 	str.w	r8, [sp, #12]
 8005804:	2330      	movs	r3, #48	; 0x30
 8005806:	f8df 81a8 	ldr.w	r8, [pc, #424]	; 80059b0 <_svfiprintf_r+0x1ec>
 800580a:	f88d 302a 	strb.w	r3, [sp, #42]	; 0x2a
 800580e:	f04f 0901 	mov.w	r9, #1
 8005812:	4623      	mov	r3, r4
 8005814:	469a      	mov	sl, r3
 8005816:	f813 2b01 	ldrb.w	r2, [r3], #1
 800581a:	b10a      	cbz	r2, 8005820 <_svfiprintf_r+0x5c>
 800581c:	2a25      	cmp	r2, #37	; 0x25
 800581e:	d1f9      	bne.n	8005814 <_svfiprintf_r+0x50>
 8005820:	ebba 0b04 	subs.w	fp, sl, r4
 8005824:	d00b      	beq.n	800583e <_svfiprintf_r+0x7a>
 8005826:	465b      	mov	r3, fp
 8005828:	4622      	mov	r2, r4
 800582a:	4629      	mov	r1, r5
 800582c:	4638      	mov	r0, r7
 800582e:	f7ff ff6d 	bl	800570c <__ssputs_r>
 8005832:	3001      	adds	r0, #1
 8005834:	f000 80aa 	beq.w	800598c <_svfiprintf_r+0x1c8>
 8005838:	9a09      	ldr	r2, [sp, #36]	; 0x24
 800583a:	445a      	add	r2, fp
 800583c:	9209      	str	r2, [sp, #36]	; 0x24
 800583e:	f89a 3000 	ldrb.w	r3, [sl]
 8005842:	2b00      	cmp	r3, #0
 8005844:	f000 80a2 	beq.w	800598c <_svfiprintf_r+0x1c8>
 8005848:	2300      	movs	r3, #0
 800584a:	f04f 32ff 	mov.w	r2, #4294967295
 800584e:	e9cd 2305 	strd	r2, r3, [sp, #20]
 8005852:	f10a 0a01 	add.w	sl, sl, #1
 8005856:	9304      	str	r3, [sp, #16]
 8005858:	9307      	str	r3, [sp, #28]
 800585a:	f88d 3053 	strb.w	r3, [sp, #83]	; 0x53
 800585e:	931a      	str	r3, [sp, #104]	; 0x68
 8005860:	4654      	mov	r4, sl
 8005862:	2205      	movs	r2, #5
 8005864:	f814 1b01 	ldrb.w	r1, [r4], #1
 8005868:	4851      	ldr	r0, [pc, #324]	; (80059b0 <_svfiprintf_r+0x1ec>)
 800586a:	f7fa fcc1 	bl	80001f0 <memchr>
 800586e:	9a04      	ldr	r2, [sp, #16]
 8005870:	b9d8      	cbnz	r0, 80058aa <_svfiprintf_r+0xe6>
 8005872:	06d0      	lsls	r0, r2, #27
 8005874:	bf44      	itt	mi
 8005876:	2320      	movmi	r3, #32
 8005878:	f88d 3053 	strbmi.w	r3, [sp, #83]	; 0x53
 800587c:	0711      	lsls	r1, r2, #28
 800587e:	bf44      	itt	mi
 8005880:	232b      	movmi	r3, #43	; 0x2b
 8005882:	f88d 3053 	strbmi.w	r3, [sp, #83]	; 0x53
 8005886:	f89a 3000 	ldrb.w	r3, [sl]
 800588a:	2b2a      	cmp	r3, #42	; 0x2a
 800588c:	d015      	beq.n	80058ba <_svfiprintf_r+0xf6>
 800588e:	9a07      	ldr	r2, [sp, #28]
 8005890:	4654      	mov	r4, sl
 8005892:	2000      	movs	r0, #0
 8005894:	f04f 0c0a 	mov.w	ip, #10
 8005898:	4621      	mov	r1, r4
 800589a:	f811 3b01 	ldrb.w	r3, [r1], #1
 800589e:	3b30      	subs	r3, #48	; 0x30
 80058a0:	2b09      	cmp	r3, #9
 80058a2:	d94e      	bls.n	8005942 <_svfiprintf_r+0x17e>
 80058a4:	b1b0      	cbz	r0, 80058d4 <_svfiprintf_r+0x110>
 80058a6:	9207      	str	r2, [sp, #28]
 80058a8:	e014      	b.n	80058d4 <_svfiprintf_r+0x110>
 80058aa:	eba0 0308 	sub.w	r3, r0, r8
 80058ae:	fa09 f303 	lsl.w	r3, r9, r3
 80058b2:	4313      	orrs	r3, r2
 80058b4:	9304      	str	r3, [sp, #16]
 80058b6:	46a2      	mov	sl, r4
 80058b8:	e7d2      	b.n	8005860 <_svfiprintf_r+0x9c>
 80058ba:	9b03      	ldr	r3, [sp, #12]
 80058bc:	1d19      	adds	r1, r3, #4
 80058be:	681b      	ldr	r3, [r3, #0]
 80058c0:	9103      	str	r1, [sp, #12]
 80058c2:	2b00      	cmp	r3, #0
 80058c4:	bfbb      	ittet	lt
 80058c6:	425b      	neglt	r3, r3
 80058c8:	f042 0202 	orrlt.w	r2, r2, #2
 80058cc:	9307      	strge	r3, [sp, #28]
 80058ce:	9307      	strlt	r3, [sp, #28]
 80058d0:	bfb8      	it	lt
 80058d2:	9204      	strlt	r2, [sp, #16]
 80058d4:	7823      	ldrb	r3, [r4, #0]
 80058d6:	2b2e      	cmp	r3, #46	; 0x2e
 80058d8:	d10c      	bne.n	80058f4 <_svfiprintf_r+0x130>
 80058da:	7863      	ldrb	r3, [r4, #1]
 80058dc:	2b2a      	cmp	r3, #42	; 0x2a
 80058de:	d135      	bne.n	800594c <_svfiprintf_r+0x188>
 80058e0:	9b03      	ldr	r3, [sp, #12]
 80058e2:	1d1a      	adds	r2, r3, #4
 80058e4:	681b      	ldr	r3, [r3, #0]
 80058e6:	9203      	str	r2, [sp, #12]
 80058e8:	2b00      	cmp	r3, #0
 80058ea:	bfb8      	it	lt
 80058ec:	f04f 33ff 	movlt.w	r3, #4294967295
 80058f0:	3402      	adds	r4, #2
 80058f2:	9305      	str	r3, [sp, #20]
 80058f4:	f8df a0c8 	ldr.w	sl, [pc, #200]	; 80059c0 <_svfiprintf_r+0x1fc>
 80058f8:	7821      	ldrb	r1, [r4, #0]
 80058fa:	2203      	movs	r2, #3
 80058fc:	4650      	mov	r0, sl
 80058fe:	f7fa fc77 	bl	80001f0 <memchr>
 8005902:	b140      	cbz	r0, 8005916 <_svfiprintf_r+0x152>
 8005904:	2340      	movs	r3, #64	; 0x40
 8005906:	eba0 000a 	sub.w	r0, r0, sl
 800590a:	fa03 f000 	lsl.w	r0, r3, r0
 800590e:	9b04      	ldr	r3, [sp, #16]
 8005910:	4303      	orrs	r3, r0
 8005912:	3401      	adds	r4, #1
 8005914:	9304      	str	r3, [sp, #16]
 8005916:	f814 1b01 	ldrb.w	r1, [r4], #1
 800591a:	4826      	ldr	r0, [pc, #152]	; (80059b4 <_svfiprintf_r+0x1f0>)
 800591c:	f88d 1028 	strb.w	r1, [sp, #40]	; 0x28
 8005920:	2206      	movs	r2, #6
 8005922:	f7fa fc65 	bl	80001f0 <memchr>
 8005926:	2800      	cmp	r0, #0
 8005928:	d038      	beq.n	800599c <_svfiprintf_r+0x1d8>
 800592a:	4b23      	ldr	r3, [pc, #140]	; (80059b8 <_svfiprintf_r+0x1f4>)
 800592c:	bb1b      	cbnz	r3, 8005976 <_svfiprintf_r+0x1b2>
 800592e:	9b03      	ldr	r3, [sp, #12]
 8005930:	3307      	adds	r3, #7
 8005932:	f023 0307 	bic.w	r3, r3, #7
 8005936:	3308      	adds	r3, #8
 8005938:	9303      	str	r3, [sp, #12]
 800593a:	9b09      	ldr	r3, [sp, #36]	; 0x24
 800593c:	4433      	add	r3, r6
 800593e:	9309      	str	r3, [sp, #36]	; 0x24
 8005940:	e767      	b.n	8005812 <_svfiprintf_r+0x4e>
 8005942:	fb0c 3202 	mla	r2, ip, r2, r3
 8005946:	460c      	mov	r4, r1
 8005948:	2001      	movs	r0, #1
 800594a:	e7a5      	b.n	8005898 <_svfiprintf_r+0xd4>
 800594c:	2300      	movs	r3, #0
 800594e:	3401      	adds	r4, #1
 8005950:	9305      	str	r3, [sp, #20]
 8005952:	4619      	mov	r1, r3
 8005954:	f04f 0c0a 	mov.w	ip, #10
 8005958:	4620      	mov	r0, r4
 800595a:	f810 2b01 	ldrb.w	r2, [r0], #1
 800595e:	3a30      	subs	r2, #48	; 0x30
 8005960:	2a09      	cmp	r2, #9
 8005962:	d903      	bls.n	800596c <_svfiprintf_r+0x1a8>
 8005964:	2b00      	cmp	r3, #0
 8005966:	d0c5      	beq.n	80058f4 <_svfiprintf_r+0x130>
 8005968:	9105      	str	r1, [sp, #20]
 800596a:	e7c3      	b.n	80058f4 <_svfiprintf_r+0x130>
 800596c:	fb0c 2101 	mla	r1, ip, r1, r2
 8005970:	4604      	mov	r4, r0
 8005972:	2301      	movs	r3, #1
 8005974:	e7f0      	b.n	8005958 <_svfiprintf_r+0x194>
 8005976:	ab03      	add	r3, sp, #12
 8005978:	9300      	str	r3, [sp, #0]
 800597a:	462a      	mov	r2, r5
 800597c:	4b0f      	ldr	r3, [pc, #60]	; (80059bc <_svfiprintf_r+0x1f8>)
 800597e:	a904      	add	r1, sp, #16
 8005980:	4638      	mov	r0, r7
 8005982:	f3af 8000 	nop.w
 8005986:	1c42      	adds	r2, r0, #1
 8005988:	4606      	mov	r6, r0
 800598a:	d1d6      	bne.n	800593a <_svfiprintf_r+0x176>
 800598c:	89ab      	ldrh	r3, [r5, #12]
 800598e:	065b      	lsls	r3, r3, #25
 8005990:	f53f af2c 	bmi.w	80057ec <_svfiprintf_r+0x28>
 8005994:	9809      	ldr	r0, [sp, #36]	; 0x24
 8005996:	b01d      	add	sp, #116	; 0x74
 8005998:	e8bd 8ff0 	ldmia.w	sp!, {r4, r5, r6, r7, r8, r9, sl, fp, pc}
 800599c:	ab03      	add	r3, sp, #12
 800599e:	9300      	str	r3, [sp, #0]
 80059a0:	462a      	mov	r2, r5
 80059a2:	4b06      	ldr	r3, [pc, #24]	; (80059bc <_svfiprintf_r+0x1f8>)
 80059a4:	a904      	add	r1, sp, #16
 80059a6:	4638      	mov	r0, r7
 80059a8:	f000 f87a 	bl	8005aa0 <_printf_i>
 80059ac:	e7eb      	b.n	8005986 <_svfiprintf_r+0x1c2>
 80059ae:	bf00      	nop
 80059b0:	080060f0 	.word	0x080060f0
 80059b4:	080060fa 	.word	0x080060fa
 80059b8:	00000000 	.word	0x00000000
 80059bc:	0800570d 	.word	0x0800570d
 80059c0:	080060f6 	.word	0x080060f6

080059c4 <_printf_common>:
 80059c4:	e92d 47f0 	stmdb	sp!, {r4, r5, r6, r7, r8, r9, sl, lr}
 80059c8:	4616      	mov	r6, r2
 80059ca:	4699      	mov	r9, r3
 80059cc:	688a      	ldr	r2, [r1, #8]
 80059ce:	690b      	ldr	r3, [r1, #16]
 80059d0:	f8dd 8020 	ldr.w	r8, [sp, #32]
 80059d4:	4293      	cmp	r3, r2
 80059d6:	bfb8      	it	lt
 80059d8:	4613      	movlt	r3, r2
 80059da:	6033      	str	r3, [r6, #0]
 80059dc:	f891 2043 	ldrb.w	r2, [r1, #67]	; 0x43
 80059e0:	4607      	mov	r7, r0
 80059e2:	460c      	mov	r4, r1
 80059e4:	b10a      	cbz	r2, 80059ea <_printf_common+0x26>
 80059e6:	3301      	adds	r3, #1
 80059e8:	6033      	str	r3, [r6, #0]
 80059ea:	6823      	ldr	r3, [r4, #0]
 80059ec:	0699      	lsls	r1, r3, #26
 80059ee:	bf42      	ittt	mi
 80059f0:	6833      	ldrmi	r3, [r6, #0]
 80059f2:	3302      	addmi	r3, #2
 80059f4:	6033      	strmi	r3, [r6, #0]
 80059f6:	6825      	ldr	r5, [r4, #0]
 80059f8:	f015 0506 	ands.w	r5, r5, #6
 80059fc:	d106      	bne.n	8005a0c <_printf_common+0x48>
 80059fe:	f104 0a19 	add.w	sl, r4, #25
 8005a02:	68e3      	ldr	r3, [r4, #12]
 8005a04:	6832      	ldr	r2, [r6, #0]
 8005a06:	1a9b      	subs	r3, r3, r2
 8005a08:	42ab      	cmp	r3, r5
 8005a0a:	dc26      	bgt.n	8005a5a <_printf_common+0x96>
 8005a0c:	f894 2043 	ldrb.w	r2, [r4, #67]	; 0x43
 8005a10:	1e13      	subs	r3, r2, #0
 8005a12:	6822      	ldr	r2, [r4, #0]
 8005a14:	bf18      	it	ne
 8005a16:	2301      	movne	r3, #1
 8005a18:	0692      	lsls	r2, r2, #26
 8005a1a:	d42b      	bmi.n	8005a74 <_printf_common+0xb0>
 8005a1c:	f104 0243 	add.w	r2, r4, #67	; 0x43
 8005a20:	4649      	mov	r1, r9
 8005a22:	4638      	mov	r0, r7
 8005a24:	47c0      	blx	r8
 8005a26:	3001      	adds	r0, #1
 8005a28:	d01e      	beq.n	8005a68 <_printf_common+0xa4>
 8005a2a:	6823      	ldr	r3, [r4, #0]
 8005a2c:	68e5      	ldr	r5, [r4, #12]
 8005a2e:	6832      	ldr	r2, [r6, #0]
 8005a30:	f003 0306 	and.w	r3, r3, #6
 8005a34:	2b04      	cmp	r3, #4
 8005a36:	bf08      	it	eq
 8005a38:	1aad      	subeq	r5, r5, r2
 8005a3a:	68a3      	ldr	r3, [r4, #8]
 8005a3c:	6922      	ldr	r2, [r4, #16]
 8005a3e:	bf0c      	ite	eq
 8005a40:	ea25 75e5 	biceq.w	r5, r5, r5, asr #31
 8005a44:	2500      	movne	r5, #0
 8005a46:	4293      	cmp	r3, r2
 8005a48:	bfc4      	itt	gt
 8005a4a:	1a9b      	subgt	r3, r3, r2
 8005a4c:	18ed      	addgt	r5, r5, r3
 8005a4e:	2600      	movs	r6, #0
 8005a50:	341a      	adds	r4, #26
 8005a52:	42b5      	cmp	r5, r6
 8005a54:	d11a      	bne.n	8005a8c <_printf_common+0xc8>
 8005a56:	2000      	movs	r0, #0
 8005a58:	e008      	b.n	8005a6c <_printf_common+0xa8>
 8005a5a:	2301      	movs	r3, #1
 8005a5c:	4652      	mov	r2, sl
 8005a5e:	4649      	mov	r1, r9
 8005a60:	4638      	mov	r0, r7
 8005a62:	47c0      	blx	r8
 8005a64:	3001      	adds	r0, #1
 8005a66:	d103      	bne.n	8005a70 <_printf_common+0xac>
 8005a68:	f04f 30ff 	mov.w	r0, #4294967295
 8005a6c:	e8bd 87f0 	ldmia.w	sp!, {r4, r5, r6, r7, r8, r9, sl, pc}
 8005a70:	3501      	adds	r5, #1
 8005a72:	e7c6      	b.n	8005a02 <_printf_common+0x3e>
 8005a74:	18e1      	adds	r1, r4, r3
 8005a76:	1c5a      	adds	r2, r3, #1
 8005a78:	2030      	movs	r0, #48	; 0x30
 8005a7a:	f881 0043 	strb.w	r0, [r1, #67]	; 0x43
 8005a7e:	4422      	add	r2, r4
 8005a80:	f894 1045 	ldrb.w	r1, [r4, #69]	; 0x45
 8005a84:	f882 1043 	strb.w	r1, [r2, #67]	; 0x43
 8005a88:	3302      	adds	r3, #2
 8005a8a:	e7c7      	b.n	8005a1c <_printf_common+0x58>
 8005a8c:	2301      	movs	r3, #1
 8005a8e:	4622      	mov	r2, r4
 8005a90:	4649      	mov	r1, r9
 8005a92:	4638      	mov	r0, r7
 8005a94:	47c0      	blx	r8
 8005a96:	3001      	adds	r0, #1
 8005a98:	d0e6      	beq.n	8005a68 <_printf_common+0xa4>
 8005a9a:	3601      	adds	r6, #1
 8005a9c:	e7d9      	b.n	8005a52 <_printf_common+0x8e>
	...

08005aa0 <_printf_i>:
 8005aa0:	e92d 47ff 	stmdb	sp!, {r0, r1, r2, r3, r4, r5, r6, r7, r8, r9, sl, lr}
 8005aa4:	460c      	mov	r4, r1
 8005aa6:	4691      	mov	r9, r2
 8005aa8:	7e27      	ldrb	r7, [r4, #24]
 8005aaa:	990c      	ldr	r1, [sp, #48]	; 0x30
 8005aac:	2f78      	cmp	r7, #120	; 0x78
 8005aae:	4680      	mov	r8, r0
 8005ab0:	469a      	mov	sl, r3
 8005ab2:	f104 0243 	add.w	r2, r4, #67	; 0x43
 8005ab6:	d807      	bhi.n	8005ac8 <_printf_i+0x28>
 8005ab8:	2f62      	cmp	r7, #98	; 0x62
 8005aba:	d80a      	bhi.n	8005ad2 <_printf_i+0x32>
 8005abc:	2f00      	cmp	r7, #0
 8005abe:	f000 80d8 	beq.w	8005c72 <_printf_i+0x1d2>
 8005ac2:	2f58      	cmp	r7, #88	; 0x58
 8005ac4:	f000 80a3 	beq.w	8005c0e <_printf_i+0x16e>
 8005ac8:	f104 0642 	add.w	r6, r4, #66	; 0x42
 8005acc:	f884 7042 	strb.w	r7, [r4, #66]	; 0x42
 8005ad0:	e03a      	b.n	8005b48 <_printf_i+0xa8>
 8005ad2:	f1a7 0363 	sub.w	r3, r7, #99	; 0x63
 8005ad6:	2b15      	cmp	r3, #21
 8005ad8:	d8f6      	bhi.n	8005ac8 <_printf_i+0x28>
 8005ada:	a001      	add	r0, pc, #4	; (adr r0, 8005ae0 <_printf_i+0x40>)
 8005adc:	f850 f023 	ldr.w	pc, [r0, r3, lsl #2]
 8005ae0:	08005b39 	.word	0x08005b39
 8005ae4:	08005b4d 	.word	0x08005b4d
 8005ae8:	08005ac9 	.word	0x08005ac9
 8005aec:	08005ac9 	.word	0x08005ac9
 8005af0:	08005ac9 	.word	0x08005ac9
 8005af4:	08005ac9 	.word	0x08005ac9
 8005af8:	08005b4d 	.word	0x08005b4d
 8005afc:	08005ac9 	.word	0x08005ac9
 8005b00:	08005ac9 	.word	0x08005ac9
 8005b04:	08005ac9 	.word	0x08005ac9
 8005b08:	08005ac9 	.word	0x08005ac9
 8005b0c:	08005c59 	.word	0x08005c59
 8005b10:	08005b7d 	.word	0x08005b7d
 8005b14:	08005c3b 	.word	0x08005c3b
 8005b18:	08005ac9 	.word	0x08005ac9
 8005b1c:	08005ac9 	.word	0x08005ac9
 8005b20:	08005c7b 	.word	0x08005c7b
 8005b24:	08005ac9 	.word	0x08005ac9
 8005b28:	08005b7d 	.word	0x08005b7d
 8005b2c:	08005ac9 	.word	0x08005ac9
 8005b30:	08005ac9 	.word	0x08005ac9
 8005b34:	08005c43 	.word	0x08005c43
 8005b38:	680b      	ldr	r3, [r1, #0]
 8005b3a:	1d1a      	adds	r2, r3, #4
 8005b3c:	681b      	ldr	r3, [r3, #0]
 8005b3e:	600a      	str	r2, [r1, #0]
 8005b40:	f104 0642 	add.w	r6, r4, #66	; 0x42
 8005b44:	f884 3042 	strb.w	r3, [r4, #66]	; 0x42
 8005b48:	2301      	movs	r3, #1
 8005b4a:	e0a3      	b.n	8005c94 <_printf_i+0x1f4>
 8005b4c:	6825      	ldr	r5, [r4, #0]
 8005b4e:	6808      	ldr	r0, [r1, #0]
 8005b50:	062e      	lsls	r6, r5, #24
 8005b52:	f100 0304 	add.w	r3, r0, #4
 8005b56:	d50a      	bpl.n	8005b6e <_printf_i+0xce>
 8005b58:	6805      	ldr	r5, [r0, #0]
 8005b5a:	600b      	str	r3, [r1, #0]
 8005b5c:	2d00      	cmp	r5, #0
 8005b5e:	da03      	bge.n	8005b68 <_printf_i+0xc8>
 8005b60:	232d      	movs	r3, #45	; 0x2d
 8005b62:	426d      	negs	r5, r5
 8005b64:	f884 3043 	strb.w	r3, [r4, #67]	; 0x43
 8005b68:	485e      	ldr	r0, [pc, #376]	; (8005ce4 <_printf_i+0x244>)
 8005b6a:	230a      	movs	r3, #10
 8005b6c:	e019      	b.n	8005ba2 <_printf_i+0x102>
 8005b6e:	f015 0f40 	tst.w	r5, #64	; 0x40
 8005b72:	6805      	ldr	r5, [r0, #0]
 8005b74:	600b      	str	r3, [r1, #0]
 8005b76:	bf18      	it	ne
 8005b78:	b22d      	sxthne	r5, r5
 8005b7a:	e7ef      	b.n	8005b5c <_printf_i+0xbc>
 8005b7c:	680b      	ldr	r3, [r1, #0]
 8005b7e:	6825      	ldr	r5, [r4, #0]
 8005b80:	1d18      	adds	r0, r3, #4
 8005b82:	6008      	str	r0, [r1, #0]
 8005b84:	0628      	lsls	r0, r5, #24
 8005b86:	d501      	bpl.n	8005b8c <_printf_i+0xec>
 8005b88:	681d      	ldr	r5, [r3, #0]
 8005b8a:	e002      	b.n	8005b92 <_printf_i+0xf2>
 8005b8c:	0669      	lsls	r1, r5, #25
 8005b8e:	d5fb      	bpl.n	8005b88 <_printf_i+0xe8>
 8005b90:	881d      	ldrh	r5, [r3, #0]
 8005b92:	4854      	ldr	r0, [pc, #336]	; (8005ce4 <_printf_i+0x244>)
 8005b94:	2f6f      	cmp	r7, #111	; 0x6f
 8005b96:	bf0c      	ite	eq
 8005b98:	2308      	moveq	r3, #8
 8005b9a:	230a      	movne	r3, #10
 8005b9c:	2100      	movs	r1, #0
 8005b9e:	f884 1043 	strb.w	r1, [r4, #67]	; 0x43
 8005ba2:	6866      	ldr	r6, [r4, #4]
 8005ba4:	60a6      	str	r6, [r4, #8]
 8005ba6:	2e00      	cmp	r6, #0
 8005ba8:	bfa2      	ittt	ge
 8005baa:	6821      	ldrge	r1, [r4, #0]
 8005bac:	f021 0104 	bicge.w	r1, r1, #4
 8005bb0:	6021      	strge	r1, [r4, #0]
 8005bb2:	b90d      	cbnz	r5, 8005bb8 <_printf_i+0x118>
 8005bb4:	2e00      	cmp	r6, #0
 8005bb6:	d04d      	beq.n	8005c54 <_printf_i+0x1b4>
 8005bb8:	4616      	mov	r6, r2
 8005bba:	fbb5 f1f3 	udiv	r1, r5, r3
 8005bbe:	fb03 5711 	mls	r7, r3, r1, r5
 8005bc2:	5dc7      	ldrb	r7, [r0, r7]
 8005bc4:	f806 7d01 	strb.w	r7, [r6, #-1]!
 8005bc8:	462f      	mov	r7, r5
 8005bca:	42bb      	cmp	r3, r7
 8005bcc:	460d      	mov	r5, r1
 8005bce:	d9f4      	bls.n	8005bba <_printf_i+0x11a>
 8005bd0:	2b08      	cmp	r3, #8
 8005bd2:	d10b      	bne.n	8005bec <_printf_i+0x14c>
 8005bd4:	6823      	ldr	r3, [r4, #0]
 8005bd6:	07df      	lsls	r7, r3, #31
 8005bd8:	d508      	bpl.n	8005bec <_printf_i+0x14c>
 8005bda:	6923      	ldr	r3, [r4, #16]
 8005bdc:	6861      	ldr	r1, [r4, #4]
 8005bde:	4299      	cmp	r1, r3
 8005be0:	bfde      	ittt	le
 8005be2:	2330      	movle	r3, #48	; 0x30
 8005be4:	f806 3c01 	strble.w	r3, [r6, #-1]
 8005be8:	f106 36ff 	addle.w	r6, r6, #4294967295
 8005bec:	1b92      	subs	r2, r2, r6
 8005bee:	6122      	str	r2, [r4, #16]
 8005bf0:	f8cd a000 	str.w	sl, [sp]
 8005bf4:	464b      	mov	r3, r9
 8005bf6:	aa03      	add	r2, sp, #12
 8005bf8:	4621      	mov	r1, r4
 8005bfa:	4640      	mov	r0, r8
 8005bfc:	f7ff fee2 	bl	80059c4 <_printf_common>
 8005c00:	3001      	adds	r0, #1
 8005c02:	d14c      	bne.n	8005c9e <_printf_i+0x1fe>
 8005c04:	f04f 30ff 	mov.w	r0, #4294967295
 8005c08:	b004      	add	sp, #16
 8005c0a:	e8bd 87f0 	ldmia.w	sp!, {r4, r5, r6, r7, r8, r9, sl, pc}
 8005c0e:	4835      	ldr	r0, [pc, #212]	; (8005ce4 <_printf_i+0x244>)
 8005c10:	f884 7045 	strb.w	r7, [r4, #69]	; 0x45
 8005c14:	6823      	ldr	r3, [r4, #0]
 8005c16:	680e      	ldr	r6, [r1, #0]
 8005c18:	061f      	lsls	r7, r3, #24
 8005c1a:	f856 5b04 	ldr.w	r5, [r6], #4
 8005c1e:	600e      	str	r6, [r1, #0]
 8005c20:	d514      	bpl.n	8005c4c <_printf_i+0x1ac>
 8005c22:	07d9      	lsls	r1, r3, #31
 8005c24:	bf44      	itt	mi
 8005c26:	f043 0320 	orrmi.w	r3, r3, #32
 8005c2a:	6023      	strmi	r3, [r4, #0]
 8005c2c:	b91d      	cbnz	r5, 8005c36 <_printf_i+0x196>
 8005c2e:	6823      	ldr	r3, [r4, #0]
 8005c30:	f023 0320 	bic.w	r3, r3, #32
 8005c34:	6023      	str	r3, [r4, #0]
 8005c36:	2310      	movs	r3, #16
 8005c38:	e7b0      	b.n	8005b9c <_printf_i+0xfc>
 8005c3a:	6823      	ldr	r3, [r4, #0]
 8005c3c:	f043 0320 	orr.w	r3, r3, #32
 8005c40:	6023      	str	r3, [r4, #0]
 8005c42:	2378      	movs	r3, #120	; 0x78
 8005c44:	4828      	ldr	r0, [pc, #160]	; (8005ce8 <_printf_i+0x248>)
 8005c46:	f884 3045 	strb.w	r3, [r4, #69]	; 0x45
 8005c4a:	e7e3      	b.n	8005c14 <_printf_i+0x174>
 8005c4c:	065e      	lsls	r6, r3, #25
 8005c4e:	bf48      	it	mi
 8005c50:	b2ad      	uxthmi	r5, r5
 8005c52:	e7e6      	b.n	8005c22 <_printf_i+0x182>
 8005c54:	4616      	mov	r6, r2
 8005c56:	e7bb      	b.n	8005bd0 <_printf_i+0x130>
 8005c58:	680b      	ldr	r3, [r1, #0]
 8005c5a:	6826      	ldr	r6, [r4, #0]
 8005c5c:	6960      	ldr	r0, [r4, #20]
 8005c5e:	1d1d      	adds	r5, r3, #4
 8005c60:	600d      	str	r5, [r1, #0]
 8005c62:	0635      	lsls	r5, r6, #24
 8005c64:	681b      	ldr	r3, [r3, #0]
 8005c66:	d501      	bpl.n	8005c6c <_printf_i+0x1cc>
 8005c68:	6018      	str	r0, [r3, #0]
 8005c6a:	e002      	b.n	8005c72 <_printf_i+0x1d2>
 8005c6c:	0671      	lsls	r1, r6, #25
 8005c6e:	d5fb      	bpl.n	8005c68 <_printf_i+0x1c8>
 8005c70:	8018      	strh	r0, [r3, #0]
 8005c72:	2300      	movs	r3, #0
 8005c74:	6123      	str	r3, [r4, #16]
 8005c76:	4616      	mov	r6, r2
 8005c78:	e7ba      	b.n	8005bf0 <_printf_i+0x150>
 8005c7a:	680b      	ldr	r3, [r1, #0]
 8005c7c:	1d1a      	adds	r2, r3, #4
 8005c7e:	600a      	str	r2, [r1, #0]
 8005c80:	681e      	ldr	r6, [r3, #0]
 8005c82:	6862      	ldr	r2, [r4, #4]
 8005c84:	2100      	movs	r1, #0
 8005c86:	4630      	mov	r0, r6
 8005c88:	f7fa fab2 	bl	80001f0 <memchr>
 8005c8c:	b108      	cbz	r0, 8005c92 <_printf_i+0x1f2>
 8005c8e:	1b80      	subs	r0, r0, r6
 8005c90:	6060      	str	r0, [r4, #4]
 8005c92:	6863      	ldr	r3, [r4, #4]
 8005c94:	6123      	str	r3, [r4, #16]
 8005c96:	2300      	movs	r3, #0
 8005c98:	f884 3043 	strb.w	r3, [r4, #67]	; 0x43
 8005c9c:	e7a8      	b.n	8005bf0 <_printf_i+0x150>
 8005c9e:	6923      	ldr	r3, [r4, #16]
 8005ca0:	4632      	mov	r2, r6
 8005ca2:	4649      	mov	r1, r9
 8005ca4:	4640      	mov	r0, r8
 8005ca6:	47d0      	blx	sl
 8005ca8:	3001      	adds	r0, #1
 8005caa:	d0ab      	beq.n	8005c04 <_printf_i+0x164>
 8005cac:	6823      	ldr	r3, [r4, #0]
 8005cae:	079b      	lsls	r3, r3, #30
 8005cb0:	d413      	bmi.n	8005cda <_printf_i+0x23a>
 8005cb2:	68e0      	ldr	r0, [r4, #12]
 8005cb4:	9b03      	ldr	r3, [sp, #12]
 8005cb6:	4298      	cmp	r0, r3
 8005cb8:	bfb8      	it	lt
 8005cba:	4618      	movlt	r0, r3
 8005cbc:	e7a4      	b.n	8005c08 <_printf_i+0x168>
 8005cbe:	2301      	movs	r3, #1
 8005cc0:	4632      	mov	r2, r6
 8005cc2:	4649      	mov	r1, r9
 8005cc4:	4640      	mov	r0, r8
 8005cc6:	47d0      	blx	sl
 8005cc8:	3001      	adds	r0, #1
 8005cca:	d09b      	beq.n	8005c04 <_printf_i+0x164>
 8005ccc:	3501      	adds	r5, #1
 8005cce:	68e3      	ldr	r3, [r4, #12]
 8005cd0:	9903      	ldr	r1, [sp, #12]
 8005cd2:	1a5b      	subs	r3, r3, r1
 8005cd4:	42ab      	cmp	r3, r5
 8005cd6:	dcf2      	bgt.n	8005cbe <_printf_i+0x21e>
 8005cd8:	e7eb      	b.n	8005cb2 <_printf_i+0x212>
 8005cda:	2500      	movs	r5, #0
 8005cdc:	f104 0619 	add.w	r6, r4, #25
 8005ce0:	e7f5      	b.n	8005cce <_printf_i+0x22e>
 8005ce2:	bf00      	nop
 8005ce4:	08006101 	.word	0x08006101
 8005ce8:	08006112 	.word	0x08006112

08005cec <memcpy>:
 8005cec:	440a      	add	r2, r1
 8005cee:	4291      	cmp	r1, r2
 8005cf0:	f100 33ff 	add.w	r3, r0, #4294967295
 8005cf4:	d100      	bne.n	8005cf8 <memcpy+0xc>
 8005cf6:	4770      	bx	lr
 8005cf8:	b510      	push	{r4, lr}
 8005cfa:	f811 4b01 	ldrb.w	r4, [r1], #1
 8005cfe:	f803 4f01 	strb.w	r4, [r3, #1]!
 8005d02:	4291      	cmp	r1, r2
 8005d04:	d1f9      	bne.n	8005cfa <memcpy+0xe>
 8005d06:	bd10      	pop	{r4, pc}

08005d08 <memmove>:
 8005d08:	4288      	cmp	r0, r1
 8005d0a:	b510      	push	{r4, lr}
 8005d0c:	eb01 0402 	add.w	r4, r1, r2
 8005d10:	d902      	bls.n	8005d18 <memmove+0x10>
 8005d12:	4284      	cmp	r4, r0
 8005d14:	4623      	mov	r3, r4
 8005d16:	d807      	bhi.n	8005d28 <memmove+0x20>
 8005d18:	1e43      	subs	r3, r0, #1
 8005d1a:	42a1      	cmp	r1, r4
 8005d1c:	d008      	beq.n	8005d30 <memmove+0x28>
 8005d1e:	f811 2b01 	ldrb.w	r2, [r1], #1
 8005d22:	f803 2f01 	strb.w	r2, [r3, #1]!
 8005d26:	e7f8      	b.n	8005d1a <memmove+0x12>
 8005d28:	4402      	add	r2, r0
 8005d2a:	4601      	mov	r1, r0
 8005d2c:	428a      	cmp	r2, r1
 8005d2e:	d100      	bne.n	8005d32 <memmove+0x2a>
 8005d30:	bd10      	pop	{r4, pc}
 8005d32:	f813 4d01 	ldrb.w	r4, [r3, #-1]!
 8005d36:	f802 4d01 	strb.w	r4, [r2, #-1]!
 8005d3a:	e7f7      	b.n	8005d2c <memmove+0x24>

08005d3c <_realloc_r>:
 8005d3c:	b5f8      	push	{r3, r4, r5, r6, r7, lr}
 8005d3e:	4607      	mov	r7, r0
 8005d40:	4614      	mov	r4, r2
 8005d42:	460e      	mov	r6, r1
 8005d44:	b921      	cbnz	r1, 8005d50 <_realloc_r+0x14>
 8005d46:	e8bd 40f8 	ldmia.w	sp!, {r3, r4, r5, r6, r7, lr}
 8005d4a:	4611      	mov	r1, r2
 8005d4c:	f7ff bb66 	b.w	800541c <_malloc_r>
 8005d50:	b922      	cbnz	r2, 8005d5c <_realloc_r+0x20>
 8005d52:	f7ff fb13 	bl	800537c <_free_r>
 8005d56:	4625      	mov	r5, r4
 8005d58:	4628      	mov	r0, r5
 8005d5a:	bdf8      	pop	{r3, r4, r5, r6, r7, pc}
 8005d5c:	f000 f814 	bl	8005d88 <_malloc_usable_size_r>
 8005d60:	42a0      	cmp	r0, r4
 8005d62:	d20f      	bcs.n	8005d84 <_realloc_r+0x48>
 8005d64:	4621      	mov	r1, r4
 8005d66:	4638      	mov	r0, r7
 8005d68:	f7ff fb58 	bl	800541c <_malloc_r>
 8005d6c:	4605      	mov	r5, r0
 8005d6e:	2800      	cmp	r0, #0
 8005d70:	d0f2      	beq.n	8005d58 <_realloc_r+0x1c>
 8005d72:	4631      	mov	r1, r6
 8005d74:	4622      	mov	r2, r4
 8005d76:	f7ff ffb9 	bl	8005cec <memcpy>
 8005d7a:	4631      	mov	r1, r6
 8005d7c:	4638      	mov	r0, r7
 8005d7e:	f7ff fafd 	bl	800537c <_free_r>
 8005d82:	e7e9      	b.n	8005d58 <_realloc_r+0x1c>
 8005d84:	4635      	mov	r5, r6
 8005d86:	e7e7      	b.n	8005d58 <_realloc_r+0x1c>

08005d88 <_malloc_usable_size_r>:
 8005d88:	f851 3c04 	ldr.w	r3, [r1, #-4]
 8005d8c:	1f18      	subs	r0, r3, #4
 8005d8e:	2b00      	cmp	r3, #0
 8005d90:	bfbc      	itt	lt
 8005d92:	580b      	ldrlt	r3, [r1, r0]
 8005d94:	18c0      	addlt	r0, r0, r3
 8005d96:	4770      	bx	lr

08005d98 <_init>:
 8005d98:	b5f8      	push	{r3, r4, r5, r6, r7, lr}
 8005d9a:	bf00      	nop
 8005d9c:	bcf8      	pop	{r3, r4, r5, r6, r7}
 8005d9e:	bc08      	pop	{r3}
 8005da0:	469e      	mov	lr, r3
 8005da2:	4770      	bx	lr

08005da4 <_fini>:
 8005da4:	b5f8      	push	{r3, r4, r5, r6, r7, lr}
 8005da6:	bf00      	nop
 8005da8:	bcf8      	pop	{r3, r4, r5, r6, r7}
 8005daa:	bc08      	pop	{r3}
 8005dac:	469e      	mov	lr, r3
 8005dae:	4770      	bx	lr
